Archive member included to satisfy reference by file (symbol)

arch/arm/lib/lib.a(ashldi3.o)
                              drivers/mmc/built-in.o (__aeabi_llsl)
arch/arm/lib/lib.a(lib1funcs.o)
                              arch/arm/mach-zynq/built-in.o (__aeabi_uidiv)
arch/arm/lib/lib.a(lshrdi3.o)
                              fs/built-in.o (__aeabi_llsr)
arch/arm/lib/lib.a(div0.o)    arch/arm/lib/lib.a(lib1funcs.o) (__div0)

Discarded input sections

 .data          0x00000000        0x0 arch/arm/cpu/armv7/start.o
 .bss           0x00000000        0x0 arch/arm/cpu/armv7/start.o
 .text.v7_arch_cp15_set_l2aux_ctrl
                0x00000000        0x8 arch/arm/cpu/armv7/built-in.o
 .text.v7_arch_cp15_set_acr
                0x00000000        0x8 arch/arm/cpu/armv7/built-in.o
 .text.sdelay   0x00000000        0xc arch/arm/cpu/armv7/built-in.o
 .text.wait_on_value
                0x00000000       0x38 arch/arm/cpu/armv7/built-in.o
 .data          0x00000000        0x0 arch/arm/cpu/armv7/built-in.o
 .bss           0x00000000        0x0 arch/arm/cpu/armv7/built-in.o
 .text.setup_board_tags
                0x00000000        0x4 arch/arm/lib/built-in.o
 .text.armv7_boot_nonsec_default
                0x00000000        0x8 arch/arm/lib/built-in.o
 .text.enable_caches
                0x00000000        0xc arch/arm/lib/built-in.o
 .text.invalidate_dcache_range
                0x00000000        0x4 arch/arm/lib/built-in.o
 .text.flush_dcache_range
                0x00000000        0x4 arch/arm/lib/built-in.o
 .text.flush_dcache_all
                0x00000000        0xc arch/arm/lib/built-in.o
 .text.arm_init_before_mmu
                0x00000000        0x4 arch/arm/lib/built-in.o
 .text.mmu_page_table_flush
                0x00000000        0x4 arch/arm/lib/built-in.o
 .text.fdt_psci
                0x00000000        0x8 arch/arm/lib/built-in.o
 .data          0x00000000        0x0 arch/arm/lib/built-in.o
 .__secure_end  0x00000000        0x0 arch/arm/lib/built-in.o
 .__secure_stack_start
                0x00000000        0x0 arch/arm/lib/built-in.o
 .__secure_stack_end
                0x00000000        0x0 arch/arm/lib/built-in.o
 .__secure_start
                0x00000000        0x0 arch/arm/lib/built-in.o
 .bss           0x00000000        0x0 arch/arm/lib/built-in.o
 .text.zynq_get_silicon_version
                0x00000000       0x18 arch/arm/mach-zynq/built-in.o
 .text.zynq_slcr_get_mio_pin_status
                0x00000000       0xa4 arch/arm/mach-zynq/built-in.o
 .text.zynq_clk_get_rate
                0x00000000       0x20 arch/arm/mach-zynq/built-in.o
 .text.zynq_clk_get_name
                0x00000000       0x18 arch/arm/mach-zynq/built-in.o
 .rodata.nand16_pins
                0x00000000       0x20 arch/arm/mach-zynq/built-in.o
 .rodata.nand8_pins
                0x00000000       0x34 arch/arm/mach-zynq/built-in.o
 .rodata.usb1_pins
                0x00000000       0x30 arch/arm/mach-zynq/built-in.o
 .rodata.mio_periphs
                0x00000000       0x50 arch/arm/mach-zynq/built-in.o
 .rodata.usb0_pins
                0x00000000       0x30 arch/arm/mach-zynq/built-in.o
 .data          0x00000000        0x0 arch/arm/mach-zynq/built-in.o
 .bss           0x00000000        0x0 arch/arm/mach-zynq/built-in.o
 .text          0x00000000        0x0 board/xilinx/zynq/built-in.o
 .data          0x00000000        0x0 board/xilinx/zynq/built-in.o
 .bss           0x00000000        0x0 board/xilinx/zynq/built-in.o
 .text          0x00000000        0x0 cmd/built-in.o
 .text.bootz_setup
                0x00000000       0x18 cmd/built-in.o
 .text.invalidate_icache_all
                0x00000000        0xc cmd/built-in.o
 .text.flush_dcache_all
                0x00000000        0xc cmd/built-in.o
 .text.soc_clk_dump
                0x00000000       0x18 cmd/built-in.o
 .text.name_to_gpio
                0x00000000        0xc cmd/built-in.o
 .data          0x00000000        0x0 cmd/built-in.o
 .bss           0x00000000        0x0 cmd/built-in.o
 .text          0x00000000        0x0 common/built-in.o
 .text.hash_parse_string
                0x00000000       0x68 common/built-in.o
 .text.hash_block
                0x00000000       0x6c common/built-in.o
 .text.unset_local_var
                0x00000000       0xa0 common/built-in.o
 .text.arch_cpu_init
                0x00000000        0x8 common/built-in.o
 .text.red_led_off
                0x00000000        0x4 common/built-in.o
 .text.green_led_on
                0x00000000        0x4 common/built-in.o
 .text.green_led_off
                0x00000000        0x4 common/built-in.o
 .text.yellow_led_on
                0x00000000        0x4 common/built-in.o
 .text.yellow_led_off
                0x00000000        0x4 common/built-in.o
 .text.blue_led_on
                0x00000000        0x4 common/built-in.o
 .text.blue_led_off
                0x00000000        0x4 common/built-in.o
 .text.dram_init_banksize
                0x00000000        0x4 common/built-in.o
 .text.arch_reserve_stacks
                0x00000000        0x8 common/built-in.o
 .text.board_flash_wp_on
                0x00000000        0x8 common/built-in.o
 .text.fixup_cpu
                0x00000000        0x8 common/built-in.o
 .text.checkboard
                0x00000000        0x8 common/built-in.o
 .text.env_flags_parse_varaccess_from_binflags
                0x00000000       0x54 common/built-in.o
 .text.fdt_read_prop
                0x00000000       0x64 common/built-in.o
 .text.fdt_getprop_u32_default_node
                0x00000000       0x40 common/built-in.o
 .text.fdt_getprop_u32_default
                0x00000000       0x3c common/built-in.o
 .text.do_fixup_by_path_u32
                0x00000000       0x2c common/built-in.o
 .text.do_fixup_by_prop
                0x00000000       0x94 common/built-in.o
 .text.do_fixup_by_prop_u32
                0x00000000       0x3c common/built-in.o
 .text.do_fixup_by_compat
                0x00000000       0x88 common/built-in.o
 .text.do_fixup_by_compat_u32
                0x00000000       0x2c common/built-in.o
 .text.fdt_increase_size
                0x00000000       0x14 common/built-in.o
 .text.fdt_del_node_and_alias
                0x00000000       0x44 common/built-in.o
 .text.fdt_node_offset_by_compat_reg
                0x00000000       0x88 common/built-in.o
 .text.fdt_alloc_phandle
                0x00000000       0x58 common/built-in.o
 .text.fdt_set_phandle
                0x00000000       0x60 common/built-in.o
 .text.fdt_create_phandle
                0x00000000       0x64 common/built-in.o
 .text.fdt_set_node_status
                0x00000000      0x118 common/built-in.o
 .text.fdt_set_status_by_alias
                0x00000000       0x2c common/built-in.o
 .text.fdt_verify_alias_address
                0x00000000       0xcc common/built-in.o
 .text.fdt_get_base_address
                0x00000000       0x54 common/built-in.o
 .text.fdt_read_range
                0x00000000      0x13c common/built-in.o
 .text.fdt_setup_simplefb_node
                0x00000000      0x200 common/built-in.o
 .text.fdt_fixup_display
                0x00000000       0xd4 common/built-in.o
 .text.miiphy_link
                0x00000000       0x54 common/built-in.o
 .text.usb_submit_int_msg
                0x00000000        0x4 common/built-in.o
 .text.usb_set_protocol
                0x00000000       0x4c common/built-in.o
 .text.usb_set_idle
                0x00000000       0x54 common/built-in.o
 .text.usb_get_report
                0x00000000       0x5c common/built-in.o
 .text.usb_get_class_descriptor
                0x00000000       0x5c common/built-in.o
 .text.hub_port_reset
                0x00000000       0x20 common/built-in.o
 .text.usb_hub_probe
                0x00000000       0x64 common/built-in.o
 .text.splash_screen_prepare
                0x00000000        0x8 common/built-in.o
 .text.serial_printf
                0x00000000       0x48 common/built-in.o
 .text.fputc    0x00000000       0x1c common/built-in.o
 .text.fputs    0x00000000       0x1c common/built-in.o
 .text.fprintf  0x00000000       0x4c common/built-in.o
 .text.confirm_yesno
                0x00000000       0xd4 common/built-in.o
 .text.valloc   0x00000000        0xc common/built-in.o
 .text.pvalloc  0x00000000       0x18 common/built-in.o
 .text.cfree    0x00000000        0x4 common/built-in.o
 .text.malloc_usable_size
                0x00000000       0x3c common/built-in.o
 .text.mallopt  0x00000000       0x68 common/built-in.o
 .text.memalign_simple
                0x00000000       0x48 common/built-in.o
 .text.genimg_get_short_name
                0x00000000       0x1c common/built-in.o
 .text.genimg_get_cat_name
                0x00000000       0x5c common/built-in.o
 .text.genimg_get_cat_short_name
                0x00000000       0x5c common/built-in.o
 .text.genimg_get_cat_count
                0x00000000       0x18 common/built-in.o
 .text.genimg_get_cat_desc
                0x00000000       0x18 common/built-in.o
 .text.genimg_get_type_short_name
                0x00000000       0x10 common/built-in.o
 .text.genimg_get_comp_short_name
                0x00000000       0x10 common/built-in.o
 .text.genimg_get_os_short_name
                0x00000000       0x10 common/built-in.o
 .text.genimg_get_arch_short_name
                0x00000000       0x10 common/built-in.o
 .text.genimg_get_kernel_addr
                0x00000000       0x24 common/built-in.o
 .text.fit_get_subimage_count
                0x00000000       0x50 common/built-in.o
 .text.fit_get_timestamp
                0x00000000       0x48 common/built-in.o
 .text.fit_set_timestamp
                0x00000000       0x40 common/built-in.o
 .text.fit_conf_find_compat
                0x00000000      0x1a4 common/built-in.o
 .text.get_ram_size
                0x00000000       0xe4 common/built-in.o
 .text.stdio_init
                0x00000000       0x14 common/built-in.o
 .text.cli_simple_parse_line
                0x00000000       0x88 common/built-in.o
 .text.cli_simple_process_macros
                0x00000000      0x218 common/built-in.o
 .text.cli_simple_run_command
                0x00000000      0x148 common/built-in.o
 .text.cli_simple_loop
                0x00000000       0x7c common/built-in.o
 .text.cli_simple_run_command_list
                0x00000000       0x70 common/built-in.o
 .text.run_command_repeatable
                0x00000000       0x1c common/built-in.o
 .rodata.table_info
                0x00000000       0x30 common/built-in.o
 .rodata.unknown_str.8487
                0x00000000        0x9 common/built-in.o
 .data          0x00000000        0x0 common/built-in.o
 .data.mmap_threshold
                0x00000000        0x4 common/built-in.o
 .bss           0x00000000        0x0 common/built-in.o
 .bss.n_mmaps_max
                0x00000000        0x4 common/built-in.o
 .bss.msg.8488  0x00000000       0x1e common/built-in.o
 .bss.lastcommand.7965
                0x00000000      0x801 common/built-in.o
 .text          0x00000000        0x0 disk/built-in.o
 .text.part_get_info_by_name
                0x00000000       0x9c disk/built-in.o
 .text.is_valid_dos_buf
                0x00000000       0x18 disk/built-in.o
 .text.write_mbr_partition
                0x00000000       0x64 disk/built-in.o
 .rodata.__func__.7987
                0x00000000       0x14 disk/built-in.o
 .data          0x00000000        0x0 disk/built-in.o
 .bss           0x00000000        0x0 disk/built-in.o
 .text          0x00000000        0x0 drivers/built-in.o
 .text._device_find_global_by_of_offset
                0x00000000       0x50 drivers/built-in.o
 .text.device_get_child
                0x00000000       0x58 drivers/built-in.o
 .text.device_find_child_by_seq
                0x00000000       0x64 drivers/built-in.o
 .text.device_get_child_by_seq
                0x00000000       0x68 drivers/built-in.o
 .text.device_find_child_by_of_offset
                0x00000000       0x44 drivers/built-in.o
 .text.device_get_child_by_of_offset
                0x00000000       0x3c drivers/built-in.o
 .text.device_get_global_by_of_offset
                0x00000000       0x40 drivers/built-in.o
 .text.dev_get_driver_data
                0x00000000        0x8 drivers/built-in.o
 .text.dev_get_driver_ops
                0x00000000       0x10 drivers/built-in.o
 .text.dev_get_uclass_name
                0x00000000       0x14 drivers/built-in.o
 .text.dev_get_addr_size_index
                0x00000000       0x44 drivers/built-in.o
 .text.dev_get_addr_name
                0x00000000       0x34 drivers/built-in.o
 .text.dev_map_physmem
                0x00000000       0x14 drivers/built-in.o
 .text.device_has_children
                0x00000000       0x14 drivers/built-in.o
 .text.device_set_name
                0x00000000       0x30 drivers/built-in.o
 .text.of_device_is_compatible
                0x00000000       0x24 drivers/built-in.o
 .text.of_machine_is_compatible
                0x00000000       0x20 drivers/built-in.o
 .text.dm_fixup_for_gd_move
                0x00000000       0x18 drivers/built-in.o
 .text.dm_set_translation_offset
                0x00000000       0x18 drivers/built-in.o
 .text.dm_uninit
                0x00000000       0x1c drivers/built-in.o
 .text.uclass_destroy
                0x00000000       0x98 drivers/built-in.o
 .text.uclass_get_name
                0x00000000       0x28 drivers/built-in.o
 .text.uclass_find_device_by_name
                0x00000000       0x8c drivers/built-in.o
 .text.uclass_get_device_by_driver
                0x00000000       0x68 drivers/built-in.o
 .text.uclass_get_device_by_name
                0x00000000       0x30 drivers/built-in.o
 .text.uclass_get_device_by_phandle
                0x00000000       0xac drivers/built-in.o
 .text.uclass_first_device_err
                0x00000000       0x28 drivers/built-in.o
 .text.dm_dbg   0x00000000       0x28 drivers/built-in.o
 .text.list_count_items
                0x00000000       0x20 drivers/built-in.o
 .text.simple_bus_translate
                0x00000000       0x38 drivers/built-in.o
 .text.get_desc
                0x00000000       0xac drivers/built-in.o
 .text.blk_list_part
                0x00000000       0x78 drivers/built-in.o
 .text.blk_print_part_devnum
                0x00000000       0x38 drivers/built-in.o
 .text.blk_list_devices
                0x00000000       0x64 drivers/built-in.o
 .text.blk_print_device_num
                0x00000000       0x3c drivers/built-in.o
 .text.blk_show_device
                0x00000000       0x74 drivers/built-in.o
 .text.blk_read_devnum
                0x00000000       0x5c drivers/built-in.o
 .text.blk_write_devnum
                0x00000000       0x38 drivers/built-in.o
 .text.dfu_usb_get_reset
                0x00000000        0x8 drivers/built-in.o
 .text.dfu_write_from_mem_addr
                0x00000000       0xd0 drivers/built-in.o
 .text._input_send_keycodes
                0x00000000      0x434 drivers/built-in.o
 .text.input_tstc
                0x00000000       0x48 drivers/built-in.o
 .text.input_getc
                0x00000000       0x5c drivers/built-in.o
 .text.input_send_keycodes
                0x00000000        0x8 drivers/built-in.o
 .text.input_add_keycode
                0x00000000       0x88 drivers/built-in.o
 .text.input_add_table
                0x00000000       0x40 drivers/built-in.o
 .text.input_set_delays
                0x00000000        0xc drivers/built-in.o
 .text.input_allow_repeats
                0x00000000        0x8 drivers/built-in.o
 .text.input_leds_changed
                0x00000000       0x14 drivers/built-in.o
 .text.input_add_tables
                0x00000000       0x74 drivers/built-in.o
 .text.input_init
                0x00000000       0x24 drivers/built-in.o
 .text.input_stdio_register
                0x00000000       0x54 drivers/built-in.o
 .text.create_keymap
                0x00000000       0x94 drivers/built-in.o
 .text.key_matrix_decode
                0x00000000       0xec drivers/built-in.o
 .text.key_matrix_decode_fdt
                0x00000000       0xc4 drivers/built-in.o
 .text.key_matrix_init
                0x00000000       0x3c drivers/built-in.o
 .rodata.__func__.10587
                0x00000000       0x18 drivers/built-in.o
 .rodata.kbd_to_ansi364
                0x00000000       0x20 drivers/built-in.o
 .rodata.kbd_plain_xlate
                0x00000000       0x64 drivers/built-in.o
 .rodata.kbd_plain_xlate_german
                0x00000000       0x84 drivers/built-in.o
 .rodata.CSWTCH.33
                0x00000000        0xd drivers/built-in.o
 .data          0x00000000        0x0 drivers/built-in.o
 .data.kbd_ctrl_xlate
                0x00000000       0x64 drivers/built-in.o
 .data.kbd_right_alt_xlate_german
                0x00000000       0x58 drivers/built-in.o
 .data.kbd_shift_xlate_german
                0x00000000       0x84 drivers/built-in.o
 .data.kbd_entry
                0x00000000       0x8c drivers/built-in.o
 .data.kbd_shift_xlate
                0x00000000       0x64 drivers/built-in.o
 .bss           0x00000000        0x0 drivers/built-in.o
 .text          0x00000000        0x0 drivers/gpio/built-in.o
 .text.gpio_xlate_offs_flags
                0x00000000       0x44 drivers/gpio/built-in.o
 .text.dm_gpio_requestf
                0x00000000       0x44 drivers/gpio/built-in.o
 .text.gpio_requestf
                0x00000000       0x44 drivers/gpio/built-in.o
 .text.dm_gpio_get_open_drain
                0x00000000       0x50 drivers/gpio/built-in.o
 .text.dm_gpio_set_open_drain
                0x00000000       0x54 drivers/gpio/built-in.o
 .text.dm_gpio_set_dir_flags
                0x00000000       0x84 drivers/gpio/built-in.o
 .text._gpio_request_by_name_nodev
                0x00000000      0x10c drivers/gpio/built-in.o
 .text.dm_gpio_set_dir
                0x00000000        0x8 drivers/gpio/built-in.o
 .text.gpio_claim_vector
                0x00000000       0x88 drivers/gpio/built-in.o
 .text.gpio_get_values_as_int
                0x00000000       0x44 drivers/gpio/built-in.o
 .text.dm_gpio_get_values_as_int
                0x00000000       0x4c drivers/gpio/built-in.o
 .text.gpio_request_by_name_nodev
                0x00000000       0x30 drivers/gpio/built-in.o
 .text.gpio_request_by_name
                0x00000000       0x38 drivers/gpio/built-in.o
 .text.gpio_get_list_count
                0x00000000       0x38 drivers/gpio/built-in.o
 .text.dm_gpio_free
                0x00000000        0xc drivers/gpio/built-in.o
 .text.gpio_free_list
                0x00000000       0x3c drivers/gpio/built-in.o
 .text.gpio_free_list_nodev
                0x00000000       0x14 drivers/gpio/built-in.o
 .text.gpio_request_list_by_name_nodev
                0x00000000       0x90 drivers/gpio/built-in.o
 .text.gpio_request_list_by_name
                0x00000000       0x38 drivers/gpio/built-in.o
 .text.gpio_get_number
                0x00000000       0x20 drivers/gpio/built-in.o
 .data          0x00000000        0x0 drivers/gpio/built-in.o
 .bss           0x00000000        0x0 drivers/gpio/built-in.o
 .text          0x00000000        0x0 drivers/i2c/built-in.o
 .text.i2c_reloc_fixup
                0x00000000        0x4 drivers/i2c/built-in.o
 .text.i2c_init_board
                0x00000000        0x4 drivers/i2c/built-in.o
 .text.i2c_early_init_f
                0x00000000        0x4 drivers/i2c/built-in.o
 .text.i2c_reg_read
                0x00000000       0x20 drivers/i2c/built-in.o
 .text.i2c_reg_write
                0x00000000       0x20 drivers/i2c/built-in.o
 .data          0x00000000        0x0 drivers/i2c/built-in.o
 .bss           0x00000000        0x0 drivers/i2c/built-in.o
 .text          0x00000000        0x0 drivers/mmc/built-in.o
 .text.mmc_get_next_devnum
                0x00000000        0x8 drivers/mmc/built-in.o
 .text.mmc_unbind
                0x00000000       0x30 drivers/mmc/built-in.o
 .text.cpu_mmc_init
                0x00000000        0x8 drivers/mmc/built-in.o
 .text.board_mmc_init
                0x00000000        0x8 drivers/mmc/built-in.o
 .text.mmc_set_preinit
                0x00000000        0x8 drivers/mmc/built-in.o
 .text.zynqmp_dll_reset
                0x00000000        0x4 drivers/mmc/built-in.o
 .text.arasan_zynqmp_set_tapdelay
                0x00000000        0x4 drivers/mmc/built-in.o
 .data          0x00000000        0x0 drivers/mmc/built-in.o
 .bss           0x00000000        0x0 drivers/mmc/built-in.o
 .text          0x00000000        0x0 drivers/mtd/built-in.o
 .text.idr_remove
                0x00000000       0x14 drivers/mtd/built-in.o
 .text.idr_find
                0x00000000       0x14 drivers/mtd/built-in.o
 .text.idr_get_next
                0x00000000       0x44 drivers/mtd/built-in.o
 .text.idr_alloc
                0x00000000       0x3c drivers/mtd/built-in.o
 .text.__mtd_next_device
                0x00000000       0x20 drivers/mtd/built-in.o
 .text.del_mtd_device
                0x00000000       0x74 drivers/mtd/built-in.o
 .text.__get_mtd_device
                0x00000000       0x38 drivers/mtd/built-in.o
 .text.get_mtd_device
                0x00000000       0x8c drivers/mtd/built-in.o
 .text.get_mtd_device_nm
                0x00000000       0x58 drivers/mtd/built-in.o
 .text.__put_mtd_device
                0x00000000       0x4c drivers/mtd/built-in.o
 .text.put_mtd_device
                0x00000000        0x4 drivers/mtd/built-in.o
 .text.mtd_erase
                0x00000000       0x90 drivers/mtd/built-in.o
 .text.mtd_get_unmapped_area
                0x00000000       0x60 drivers/mtd/built-in.o
 .text.mtd_read
                0x00000000       0xa8 drivers/mtd/built-in.o
 .text.mtd_write
                0x00000000       0x9c drivers/mtd/built-in.o
 .text.mtd_panic_write
                0x00000000       0xa0 drivers/mtd/built-in.o
 .text.mtd_read_oob
                0x00000000       0x60 drivers/mtd/built-in.o
 .text.mtd_get_fact_prot_info
                0x00000000       0x34 drivers/mtd/built-in.o
 .text.mtd_read_fact_prot_reg
                0x00000000       0x48 drivers/mtd/built-in.o
 .text.mtd_get_user_prot_info
                0x00000000       0x34 drivers/mtd/built-in.o
 .text.mtd_read_user_prot_reg
                0x00000000       0x48 drivers/mtd/built-in.o
 .text.mtd_write_user_prot_reg
                0x00000000       0x68 drivers/mtd/built-in.o
 .text.mtd_lock_user_prot_reg
                0x00000000       0x38 drivers/mtd/built-in.o
 .text.mtd_lock
                0x00000000       0x74 drivers/mtd/built-in.o
 .text.mtd_unlock
                0x00000000       0x74 drivers/mtd/built-in.o
 .text.add_mtd_device
                0x00000000      0x1d8 drivers/mtd/built-in.o
 .text.mtd_is_locked
                0x00000000       0x74 drivers/mtd/built-in.o
 .text.mtd_block_isreserved
                0x00000000       0x4c drivers/mtd/built-in.o
 .text.mtd_block_isbad
                0x00000000       0x4c drivers/mtd/built-in.o
 .text.mtd_block_markbad
                0x00000000       0x64 drivers/mtd/built-in.o
 .data          0x00000000        0x0 drivers/mtd/built-in.o
 .bss           0x00000000        0x0 drivers/mtd/built-in.o
 .bss.mtd_table
                0x00000000       0x80 drivers/mtd/built-in.o
 .bss.mtd_idr   0x00000000      0x200 drivers/mtd/built-in.o
 .text          0x00000000        0x0 drivers/mtd/spi/built-in.o
 .data          0x00000000        0x0 drivers/mtd/spi/built-in.o
 .bss           0x00000000        0x0 drivers/mtd/spi/built-in.o
 .text          0x00000000        0x0 drivers/net/built-in.o
 .text.zynq_board_read_rom_ethaddr
                0x00000000        0x8 drivers/net/built-in.o
 .data          0x00000000        0x0 drivers/net/built-in.o
 .bss           0x00000000        0x0 drivers/net/built-in.o
 .text          0x00000000        0x0 drivers/net/phy/built-in.o
 .text.phy_set_supported
                0x00000000       0x5c drivers/net/phy/built-in.o
 .text.miiphy_reset
                0x00000000       0x24 drivers/net/phy/built-in.o
 .text.phy_shutdown
                0x00000000       0x20 drivers/net/phy/built-in.o
 .data          0x00000000        0x0 drivers/net/phy/built-in.o
 .bss           0x00000000        0x0 drivers/net/phy/built-in.o
 .text          0x00000000        0x0 drivers/serial/built-in.o
 .text.printascii
                0x00000000       0x20 drivers/serial/built-in.o
 .text.printhex2
                0x00000000       0x60 drivers/serial/built-in.o
 .text.printhex4
                0x00000000       0x4c drivers/serial/built-in.o
 .text.printhex8
                0x00000000       0x4c drivers/serial/built-in.o
 .text.debug_uart_init
                0x00000000       0x34 drivers/serial/built-in.o
 .data          0x00000000        0x0 drivers/serial/built-in.o
 .bss           0x00000000        0x0 drivers/serial/built-in.o
 .text          0x00000000        0x0 drivers/spi/built-in.o
 .text.spi_chip_select
                0x00000000       0x18 drivers/spi/built-in.o
 .text.spi_cs_info
                0x00000000       0x5c drivers/spi/built-in.o
 .text.spi_cs_is_valid
                0x00000000       0x40 drivers/spi/built-in.o
 .text.spi_setup_slave_fdt
                0x00000000       0x50 drivers/spi/built-in.o
 .text.spi_setup_slave
                0x00000000       0x3c drivers/spi/built-in.o
 .text.spi_free_slave
                0x00000000       0x1c drivers/spi/built-in.o
 .data          0x00000000        0x0 drivers/spi/built-in.o
 .bss           0x00000000        0x0 drivers/spi/built-in.o
 .text          0x00000000        0x0 drivers/usb/common/built-in.o
 .text.usb_get_dr_mode
                0x00000000       0x84 drivers/usb/common/built-in.o
 .text.usb_get_maximum_speed
                0x00000000       0x84 drivers/usb/common/built-in.o
 .rodata.__func__.8208
                0x00000000       0x16 drivers/usb/common/built-in.o
 .rodata.str1.1
                0x00000000       0xe4 drivers/usb/common/built-in.o
 .rodata.speed_names
                0x00000000       0x18 drivers/usb/common/built-in.o
 .rodata.__func__.8197
                0x00000000       0x10 drivers/usb/common/built-in.o
 .rodata.usb_dr_modes
                0x00000000       0x10 drivers/usb/common/built-in.o
 .data          0x00000000        0x0 drivers/usb/common/built-in.o
 .bss           0x00000000        0x0 drivers/usb/common/built-in.o
 .comment       0x00000000       0x31 drivers/usb/common/built-in.o
 .note.GNU-stack
                0x00000000        0x0 drivers/usb/common/built-in.o
 .ARM.attributes
                0x00000000       0x2d drivers/usb/common/built-in.o
 .debug_aranges
                0x00000000       0x28 drivers/usb/common/built-in.o
 .debug_info    0x00000000      0x767 drivers/usb/common/built-in.o
 .debug_abbrev  0x00000000      0x1b5 drivers/usb/common/built-in.o
 .debug_line    0x00000000      0x165 drivers/usb/common/built-in.o
 .debug_frame   0x00000000       0x48 drivers/usb/common/built-in.o
 .debug_str     0x00000000      0x684 drivers/usb/common/built-in.o
 .debug_loc     0x00000000       0xf6 drivers/usb/common/built-in.o
 .debug_ranges  0x00000000       0x18 drivers/usb/common/built-in.o
 .text          0x00000000        0x0 drivers/usb/gadget/built-in.o
 .text.usb_gadget_config_buf
                0x00000000       0x94 drivers/usb/gadget/built-in.o
 .text.usb_function_deactivate
                0x00000000       0x58 drivers/usb/gadget/built-in.o
 .text.usb_function_activate
                0x00000000       0x58 drivers/usb/gadget/built-in.o
 .text.usb_string_ids_tab
                0x00000000       0x40 drivers/usb/gadget/built-in.o
 .text.usb_string_ids_n
                0x00000000       0x2c drivers/usb/gadget/built-in.o
 .text.g_dnl_set_serialnumber
                0x00000000       0x48 drivers/usb/gadget/built-in.o
 .text.board_usb_init
                0x00000000        0x8 drivers/usb/gadget/built-in.o
 .text.board_usb_cleanup
                0x00000000        0x8 drivers/usb/gadget/built-in.o
 .text.g_dnl_board_usb_cable_connected
                0x00000000        0x8 drivers/usb/gadget/built-in.o
 .data          0x00000000        0x0 drivers/usb/gadget/built-in.o
 .bss           0x00000000        0x0 drivers/usb/gadget/built-in.o
 .text          0x00000000        0x0 drivers/usb/host/built-in.o
 .text.create_int_queue
                0x00000000       0x54 drivers/usb/host/built-in.o
 .text.poll_int_queue
                0x00000000       0x30 drivers/usb/host/built-in.o
 .text.destroy_int_queue
                0x00000000       0x30 drivers/usb/host/built-in.o
 .text.usb_detect_change
                0x00000000       0xb8 drivers/usb/host/built-in.o
 .rodata.default_ehci_ops
                0x00000000       0x14 drivers/usb/host/built-in.o
 .data          0x00000000        0x0 drivers/usb/host/built-in.o
 .bss           0x00000000        0x0 drivers/usb/host/built-in.o
 .text          0x00000000        0x0 drivers/usb/ulpi/built-in.o
 .text.ulpi_select_transceiver
                0x00000000       0x5c drivers/usb/ulpi/built-in.o
 .text.ulpi_set_vbus
                0x00000000       0x1c drivers/usb/ulpi/built-in.o
 .text.ulpi_set_vbus_indicator
                0x00000000       0x70 drivers/usb/ulpi/built-in.o
 .text.ulpi_set_pd
                0x00000000       0x14 drivers/usb/ulpi/built-in.o
 .text.ulpi_opmode_sel
                0x00000000       0x78 drivers/usb/ulpi/built-in.o
 .text.ulpi_serial_mode_enable
                0x00000000       0x3c drivers/usb/ulpi/built-in.o
 .text.ulpi_suspend
                0x00000000       0x34 drivers/usb/ulpi/built-in.o
 .text.__ulpi_reset_wait
                0x00000000       0x50 drivers/usb/ulpi/built-in.o
 .text.ulpi_reset
                0x00000000       0x44 drivers/usb/ulpi/built-in.o
 .rodata.__func__.8149
                0x00000000       0x18 drivers/usb/ulpi/built-in.o
 .rodata.__func__.8163
                0x00000000       0x12 drivers/usb/ulpi/built-in.o
 .rodata.__func__.8170
                0x00000000        0xb drivers/usb/ulpi/built-in.o
 .rodata.__func__.8105
                0x00000000       0x18 drivers/usb/ulpi/built-in.o
 .rodata.__func__.8140
                0x00000000       0x10 drivers/usb/ulpi/built-in.o
 .rodata.__func__.8154
                0x00000000        0xd drivers/usb/ulpi/built-in.o
 .data          0x00000000        0x0 drivers/usb/ulpi/built-in.o
 .bss           0x00000000        0x0 drivers/usb/ulpi/built-in.o
 .text          0x00000000        0x0 dts/built-in.o
 .data          0x00000000        0x0 dts/built-in.o
 .bss           0x00000000        0x0 dts/built-in.o
 .text          0x00000000        0x0 fs/built-in.o
 .text.fs_uuid  0x00000000       0x28 fs/built-in.o
 .text.do_fs_uuid
                0x00000000       0x90 fs/built-in.o
 .text.print_revoke_blks
                0x00000000       0x54 fs/built-in.o
 .text.fat_register_device
                0x00000000       0x88 fs/built-in.o
 .text.file_fat_read
                0x00000000       0x38 fs/built-in.o
 .text.file_getfsname
                0x00000000       0x14 fs/built-in.o
 .text.file_cd  0x00000000      0x1bc fs/built-in.o
 .text.file_detectfs
                0x00000000       0x40 fs/built-in.o
 .text.file_ls  0x00000000       0x98 fs/built-in.o
 .text.file_read
                0x00000000       0xa8 fs/built-in.o
 .rodata.filesystems
                0x00000000       0x18 fs/built-in.o
 .data          0x00000000        0x0 fs/built-in.o
 .data.file_cwd
                0x00000000      0x200 fs/built-in.o
 .data.current_filesystem
                0x00000000        0x4 fs/built-in.o
 .bss           0x00000000        0x0 fs/built-in.o
 .bss.ext4fs_symlinknest
                0x00000000        0x4 fs/built-in.o
 .text          0x00000000        0x0 lib/built-in.o
 .text.invalidate_icache_all
                0x00000000        0x4 lib/built-in.o
 .text.efi_add_runtime_mmio
                0x00000000       0x8c lib/built-in.o
 .text.inflateInit_
                0x00000000       0x14 lib/built-in.o
 .text.fdt_get_max_phandle
                0x00000000       0x78 lib/built-in.o
 .text.fdt_get_alias
                0x00000000       0x28 lib/built-in.o
 .text.fdt_get_path
                0x00000000      0x138 lib/built-in.o
 .text.fdt_node_offset_by_prop_value
                0x00000000       0x9c lib/built-in.o
 .text.fdt_stringlist_count
                0x00000000       0x64 lib/built-in.o
 .text.fdt_stringlist_search
                0x00000000       0xa8 lib/built-in.o
 .text.fdt_set_name
                0x00000000       0x88 lib/built-in.o
 .text.fdt_appendprop
                0x00000000       0xd0 lib/built-in.o
 .text.fdt_pack
                0x00000000       0x5c lib/built-in.o
 .text.fdt_remove_unused_strings
                0x00000000       0xb0 lib/built-in.o
 .text._fdt_sw_check_header
                0x00000000       0x1c lib/built-in.o
 .text._fdt_grab_space
                0x00000000       0x6c lib/built-in.o
 .text.fdt_create
                0x00000000       0x64 lib/built-in.o
 .text.fdt_resize
                0x00000000       0xb4 lib/built-in.o
 .text.fdt_add_reservemap_entry
                0x00000000       0x90 lib/built-in.o
 .text.fdt_finish_reservemap
                0x00000000       0x1c lib/built-in.o
 .text.fdt_begin_node
                0x00000000       0x68 lib/built-in.o
 .text.fdt_end_node
                0x00000000       0x40 lib/built-in.o
 .text.fdt_property_placeholder
                0x00000000      0x10c lib/built-in.o
 .text.fdt_property
                0x00000000       0x3c lib/built-in.o
 .text.fdt_finish
                0x00000000      0x100 lib/built-in.o
 .text.fdt_setprop_inplace_namelen_partial
                0x00000000       0x54 lib/built-in.o
 .text.fdt_setprop_inplace
                0x00000000       0x70 lib/built-in.o
 .text.fdt_nop_property
                0x00000000       0x40 lib/built-in.o
 .text.fdt_nop_node
                0x00000000       0x50 lib/built-in.o
 .text.fdt_create_empty_tree
                0x00000000       0x74 lib/built-in.o
 .text.fdt_add_region
                0x00000000       0x94 lib/built-in.o
 .text.fdt_add_alias_regions
                0x00000000      0x18c lib/built-in.o
 .text.fdt_next_region
                0x00000000      0x528 lib/built-in.o
 .text.fdt_first_region
                0x00000000       0x48 lib/built-in.o
 .text.crc7     0x00000000       0x24 lib/built-in.o
 .text.crc8     0x00000000       0x4c lib/built-in.o
 .text.lmb_dump_all
                0x00000000        0x4 lib/built-in.o
 .text.lmb_is_reserved
                0x00000000       0x5c lib/built-in.o
 .text.arch_lmb_reserve
                0x00000000        0x4 lib/built-in.o
 .text.ldiv     0x00000000       0x50 lib/built-in.o
 .text.md5      0x00000000       0x68 lib/built-in.o
 .text.rc4_encode
                0x00000000       0xec lib/built-in.o
 .text.zynq_pow_mod
                0x00000000      0x100 lib/built-in.o
 .text.sha1_csum
                0x00000000       0x40 lib/built-in.o
 .text.sha1_hmac
                0x00000000      0x124 lib/built-in.o
 .text.sha1_self_test
                0x00000000        0x8 lib/built-in.o
 .text.fdtdec_get_compatible
                0x00000000       0x10 lib/built-in.o
 .text.fdtdec_get_uint64
                0x00000000       0x48 lib/built-in.o
 .text.fdtdec_lookup
                0x00000000       0x4c lib/built-in.o
 .text.fdtdec_next_compatible
                0x00000000       0x10 lib/built-in.o
 .text.fdtdec_next_compatible_subnode
                0x00000000       0x68 lib/built-in.o
 .text.fdtdec_next_alias
                0x00000000       0x94 lib/built-in.o
 .text.fdtdec_add_aliases_for_id
                0x00000000      0x274 lib/built-in.o
 .text.fdtdec_find_aliases_for_id
                0x00000000       0x44 lib/built-in.o
 .text.fdtdec_check_fdt
                0x00000000       0x10 lib/built-in.o
 .text.decode_timing_property
                0x00000000       0x84 lib/built-in.o
 .text.fdtdec_get_int_array_count
                0x00000000       0x58 lib/built-in.o
 .text.fdtdec_locate_array
                0x00000000       0x28 lib/built-in.o
 .text.fdtdec_parse_phandle_with_args
                0x00000000      0x158 lib/built-in.o
 .text.fdtdec_get_child_count
                0x00000000       0x38 lib/built-in.o
 .text.fdtdec_get_byte_array
                0x00000000       0x40 lib/built-in.o
 .text.fdtdec_locate_byte_array
                0x00000000       0x24 lib/built-in.o
 .text.fdtdec_get_config_bool
                0x00000000       0x44 lib/built-in.o
 .text.fdtdec_decode_region
                0x00000000       0x54 lib/built-in.o
 .text.fdtdec_read_fmap_entry
                0x00000000       0xd4 lib/built-in.o
 .text.fdtdec_get_addr_size_auto_parent
                0x00000000       0x70 lib/built-in.o
 .text.fdtdec_get_addr_size_auto_noparent
                0x00000000       0x54 lib/built-in.o
 .text.fdtdec_get_addr
                0x00000000        0x8 lib/built-in.o
 .text.fdt_get_named_resource
                0x00000000       0x40 lib/built-in.o
 .text.fdtdec_decode_memory_region
                0x00000000      0x130 lib/built-in.o
 .text.fdtdec_decode_display_timing
                0x00000000      0x2dc lib/built-in.o
 .text.print_freq
                0x00000000      0x1a4 lib/built-in.o
 .text.copy_from_user
                0x00000000       0x10 lib/built-in.o
 .text.kmalloc  0x00000000       0x38 lib/built-in.o
 .text.get_mem  0x00000000       0x1c lib/built-in.o
 .text.kmem_cache_alloc
                0x00000000       0x10 lib/built-in.o
 .text.membuff_purge
                0x00000000       0x10 lib/built-in.o
 .text.membuff_putraw
                0x00000000       0xc8 lib/built-in.o
 .text.membuff_putbyte
                0x00000000       0x30 lib/built-in.o
 .text.membuff_getraw
                0x00000000       0x8c lib/built-in.o
 .text.membuff_getbyte
                0x00000000       0x34 lib/built-in.o
 .text.membuff_peekbyte
                0x00000000       0x30 lib/built-in.o
 .text.membuff_get
                0x00000000       0x84 lib/built-in.o
 .text.membuff_put
                0x00000000       0x64 lib/built-in.o
 .text.membuff_isempty
                0x00000000       0x18 lib/built-in.o
 .text.membuff_avail
                0x00000000       0x54 lib/built-in.o
 .text.membuff_size
                0x00000000        0xc lib/built-in.o
 .text.membuff_makecontig
                0x00000000       0x80 lib/built-in.o
 .text.membuff_free
                0x00000000       0x30 lib/built-in.o
 .text.membuff_readline
                0x00000000       0xb4 lib/built-in.o
 .text.membuff_extend_by
                0x00000000       0xc0 lib/built-in.o
 .text.membuff_init
                0x00000000       0x18 lib/built-in.o
 .text.membuff_new
                0x00000000       0x38 lib/built-in.o
 .text.membuff_uninit
                0x00000000       0x18 lib/built-in.o
 .text.membuff_dispose
                0x00000000       0x24 lib/built-in.o
 .text.strswab  0x00000000       0x48 lib/built-in.o
 .text.memscan  0x00000000       0x2c lib/built-in.o
 .text.memchr_inv
                0x00000000      0x138 lib/built-in.o
 .text.table_compute_checksum
                0x00000000       0x28 lib/built-in.o
 .text.timer_init
                0x00000000        0x8 lib/built-in.o
 .text.rand     0x00000000        0xc lib/built-in.o
 .text.srand    0x00000000       0x10 lib/built-in.o
 .text.vsnprintf
                0x00000000        0x4 lib/built-in.o
 .text.scnprintf
                0x00000000       0x28 lib/built-in.o
 .text.__assert_fail
                0x00000000       0x14 lib/built-in.o
 .text.print_grouped_ull
                0x00000000       0x88 lib/built-in.o
 .text.str2long
                0x00000000       0x40 lib/built-in.o
 .text.strmhz   0x00000000       0x64 lib/built-in.o
 .rodata.z_errmsg
                0x00000000       0x28 lib/built-in.o
 .rodata.crc7_syndrome_table
                0x00000000      0x100 lib/built-in.o
 .rodata.compat_names
                0x00000000       0x98 lib/built-in.o
 .rodata.names.8010
                0x00000000        0x3 lib/built-in.o
 .data          0x00000000        0x0 lib/built-in.o
 .data.cur      0x00000000        0x4 lib/built-in.o
 .data.current  0x00000000        0x4 lib/built-in.o
 .data.y        0x00000000        0x4 lib/built-in.o
 .bss           0x00000000        0x0 lib/built-in.o
 .text          0x00000000        0x0 net/built-in.o
 .text.add_ip_checksums
                0x00000000       0x3c net/built-in.o
 .text.eth_init_state_only
                0x00000000       0x38 net/built-in.o
 .text.eth_is_active
                0x00000000       0x38 net/built-in.o
 .text.net_get_udp_handler
                0x00000000       0x10 net/built-in.o
 .text.net_set_arp_handler
                0x00000000       0x20 net/built-in.o
 .text.random_port
                0x00000000       0x18 net/built-in.o
 .text.vlan_to_string
                0x00000000       0x3c net/built-in.o
 .text.getenv_vlan
                0x00000000       0x10 net/built-in.o
 .data          0x00000000        0x0 net/built-in.o
 .data.tftp_timeout_ms
                0x00000000        0x4 net/built-in.o
 .bss           0x00000000        0x0 net/built-in.o
 .bss.net_busy_flag
                0x00000000        0x4 net/built-in.o
 .text          0x00000000        0x0 test/dm/built-in.o
 .data          0x00000000        0x0 test/dm/built-in.o
 .bss           0x00000000        0x0 test/dm/built-in.o
 .text          0x00000000        0x0 arch/arm/lib/eabi_compat.o
 .data          0x00000000        0x0 arch/arm/lib/eabi_compat.o
 .bss           0x00000000        0x0 arch/arm/lib/eabi_compat.o
 .text.raise    0x00000000       0x1c arch/arm/lib/eabi_compat.o
 .text.__aeabi_unwind_cpp_pr0
                0x00000000        0x4 arch/arm/lib/eabi_compat.o
 .text.__aeabi_unwind_cpp_pr1
                0x00000000        0x4 arch/arm/lib/eabi_compat.o
 .text.__aeabi_memcpy
                0x00000000        0x4 arch/arm/lib/eabi_compat.o
 .text.__aeabi_memset
                0x00000000       0x10 arch/arm/lib/eabi_compat.o
 .rodata.str1.1
                0x00000000       0x1b arch/arm/lib/eabi_compat.o
 .debug_info    0x00000000      0x24a arch/arm/lib/eabi_compat.o
 .debug_abbrev  0x00000000      0x156 arch/arm/lib/eabi_compat.o
 .debug_loc     0x00000000      0x108 arch/arm/lib/eabi_compat.o
 .debug_aranges
                0x00000000       0x40 arch/arm/lib/eabi_compat.o
 .debug_ranges  0x00000000       0x30 arch/arm/lib/eabi_compat.o
 .debug_line    0x00000000       0xf7 arch/arm/lib/eabi_compat.o
 .debug_str     0x00000000      0x2f7 arch/arm/lib/eabi_compat.o
 .comment       0x00000000       0x31 arch/arm/lib/eabi_compat.o
 .note.GNU-stack
                0x00000000        0x0 arch/arm/lib/eabi_compat.o
 .ARM.attributes
                0x00000000       0x2d arch/arm/lib/eabi_compat.o
 .debug_frame   0x00000000       0x68 arch/arm/lib/eabi_compat.o
 .text          0x00000000        0x0 arch/arm/lib/lib.a(ashldi3.o)
 .data          0x00000000        0x0 arch/arm/lib/lib.a(ashldi3.o)
 .bss           0x00000000        0x0 arch/arm/lib/lib.a(ashldi3.o)
 .text          0x00000000        0x0 arch/arm/lib/lib.a(lib1funcs.o)
 .data          0x00000000        0x0 arch/arm/lib/lib.a(lib1funcs.o)
 .bss           0x00000000        0x0 arch/arm/lib/lib.a(lib1funcs.o)
 .text.__umodsi3
                0x00000000       0xa0 arch/arm/lib/lib.a(lib1funcs.o)
 .text.__modsi3
                0x00000000       0xb8 arch/arm/lib/lib.a(lib1funcs.o)
 .text          0x00000000        0x0 arch/arm/lib/lib.a(lshrdi3.o)
 .data          0x00000000        0x0 arch/arm/lib/lib.a(lshrdi3.o)
 .bss           0x00000000        0x0 arch/arm/lib/lib.a(lshrdi3.o)
 .text          0x00000000        0x0 arch/arm/lib/lib.a(div0.o)
 .data          0x00000000        0x0 arch/arm/lib/lib.a(div0.o)
 .bss           0x00000000        0x0 arch/arm/lib/lib.a(div0.o)

Memory Configuration

Name             Origin             Length             Attributes
*default*        0x00000000         0xffffffff

Linker script and memory map

Address of section .text set to 0x4000000
                0x00000000                . = 0x0
                0x00000000                . = ALIGN (0x4)

.text           0x04000000    0x523dc
 *(.__image_copy_start)
 .__image_copy_start
                0x04000000        0x0 arch/arm/lib/built-in.o
                0x04000000                __image_copy_start
 *(.vectors)
 .vectors       0x04000000      0x300 arch/arm/lib/built-in.o
                0x04000000                _start
                0x04000020                _undefined_instruction
                0x04000024                _software_interrupt
                0x04000028                _prefetch_abort
                0x0400002c                _data_abort
                0x04000030                _not_used
                0x04000034                _irq
                0x04000038                _fiq
                0x04000040                IRQ_STACK_START_IN
 arch/arm/cpu/armv7/start.o(.text*)
 .text          0x04000300       0xb0 arch/arm/cpu/armv7/start.o
                0x04000300                reset
                0x04000304                save_boot_params_ret
                0x04000340                c_runtime_cpu_setup
                0x04000350                save_boot_params
                0x04000354                cpu_init_cp15
                0x040003a8                cpu_init_crit
 *(.text*)
 .text          0x040003b0      0x148 arch/arm/cpu/armv7/built-in.o
                0x040003b0                __v7_flush_dcache_all
                0x04000444                v7_flush_dcache_all
                0x04000454                __v7_invalidate_dcache_all
                0x040004e8                v7_invalidate_dcache_all
 .text.invalidate_icache_all
                0x040004f8       0x18 arch/arm/cpu/armv7/built-in.o
                0x040004f8                invalidate_icache_all
 .text.v7_outer_cache_enable
                0x04000510        0x4 arch/arm/cpu/armv7/built-in.o
                0x04000510                v7_outer_cache_enable
 .text.v7_outer_cache_disable
                0x04000514        0x4 arch/arm/cpu/armv7/built-in.o
                0x04000514                v7_outer_cache_disable
 .text.v7_outer_cache_flush_all
                0x04000518        0x4 arch/arm/cpu/armv7/built-in.o
                0x04000518                v7_outer_cache_flush_all
 .text.flush_dcache_all
                0x0400051c       0x10 arch/arm/cpu/armv7/built-in.o
                0x0400051c                flush_dcache_all
 .text.v7_outer_cache_inval_all
                0x0400052c        0x4 arch/arm/cpu/armv7/built-in.o
                0x0400052c                v7_outer_cache_inval_all
 .text.invalidate_dcache_all
                0x04000530       0x10 arch/arm/cpu/armv7/built-in.o
                0x04000530                invalidate_dcache_all
 .text.arm_init_before_mmu
                0x04000540       0x28 arch/arm/cpu/armv7/built-in.o
                0x04000540                arm_init_before_mmu
 .text.v7_outer_cache_flush_range
                0x04000568        0x4 arch/arm/cpu/armv7/built-in.o
                0x04000568                v7_outer_cache_flush_range
 .text.flush_dcache_range
                0x0400056c       0x54 arch/arm/cpu/armv7/built-in.o
                0x0400056c                flush_dcache_range
 .text.mmu_page_table_flush
                0x040005c0       0x24 arch/arm/cpu/armv7/built-in.o
                0x040005c0                mmu_page_table_flush
 .text.v7_outer_cache_inval_range
                0x040005e4        0x4 arch/arm/cpu/armv7/built-in.o
                0x040005e4                v7_outer_cache_inval_range
 .text.invalidate_dcache_range
                0x040005e8       0x64 arch/arm/cpu/armv7/built-in.o
                0x040005e8                invalidate_dcache_range
 .text.cpu_cache_initialization
                0x0400064c        0x4 arch/arm/cpu/armv7/built-in.o
                0x0400064c                cpu_cache_initialization
 .text.cleanup_before_linux_select
                0x04000650       0x4c arch/arm/cpu/armv7/built-in.o
                0x04000650                cleanup_before_linux_select
 .text.cleanup_before_linux
                0x0400069c        0x8 arch/arm/cpu/armv7/built-in.o
                0x0400069c                cleanup_before_linux
 *fill*         0x040006a4       0x1c 
 .text          0x040006c0      0x52c arch/arm/lib/built-in.o
                0x040006c0                _main
                0x04000760                memset
                0x04000840                memcpy
 .text.relocate_vectors
                0x04000bec       0x70 arch/arm/lib/built-in.o
                0x04000bec                relocate_vectors
                0x04000bf8                relocate_code
 .text.arch_fixup_fdt
                0x04000c5c       0x38 arch/arm/lib/built-in.o
                0x04000c5c                arch_fixup_fdt
 .text.boot_prep_linux
                0x04000c94       0x4c arch/arm/lib/built-in.o
 .text.arch_lmb_reserve
                0x04000ce0       0x24 arch/arm/lib/built-in.o
                0x04000ce0                arch_lmb_reserve
 .text.board_quiesce_devices
                0x04000d04        0x4 arch/arm/lib/built-in.o
                0x04000d04                board_quiesce_devices
 .text.boot_jump_linux
                0x04000d08       0xc8 arch/arm/lib/built-in.o
 .text.do_bootm_linux
                0x04000dd0       0x5c arch/arm/lib/built-in.o
                0x04000dd0                do_bootm_linux
 .text.boot_prep_vxworks
                0x04000e2c       0x50 arch/arm/lib/built-in.o
                0x04000e2c                boot_prep_vxworks
 .text.boot_jump_vxworks
                0x04000e7c        0xc arch/arm/lib/built-in.o
                0x04000e7c                boot_jump_vxworks
 .text.bootz_setup
                0x04000e88       0x7c arch/arm/lib/built-in.o
                0x04000e88                bootz_setup
 .text.arch_reserve_stacks
                0x04000f04       0x1c arch/arm/lib/built-in.o
                0x04000f04                arch_reserve_stacks
 .text.interrupt_init
                0x04000f20       0x1c arch/arm/lib/built-in.o
                0x04000f20                interrupt_init
 .text.enable_interrupts
                0x04000f3c        0x4 arch/arm/lib/built-in.o
                0x04000f3c                enable_interrupts
 .text.disable_interrupts
                0x04000f40        0x8 arch/arm/lib/built-in.o
                0x04000f40                disable_interrupts
 .text.bad_mode
                0x04000f48       0x10 arch/arm/lib/built-in.o
                0x04000f48                bad_mode
 .text.show_regs
                0x04000f58      0x174 arch/arm/lib/built-in.o
                0x04000f58                show_regs
 .text.do_undefined_instruction
                0x040010cc       0x24 arch/arm/lib/built-in.o
                0x040010cc                do_undefined_instruction
 .text.do_software_interrupt
                0x040010f0       0x24 arch/arm/lib/built-in.o
                0x040010f0                do_software_interrupt
 .text.do_prefetch_abort
                0x04001114       0x24 arch/arm/lib/built-in.o
                0x04001114                do_prefetch_abort
 .text.do_data_abort
                0x04001138       0x24 arch/arm/lib/built-in.o
                0x04001138                do_data_abort
 .text.do_not_used
                0x0400115c       0x24 arch/arm/lib/built-in.o
                0x0400115c                do_not_used
 .text.do_fiq   0x04001180       0x24 arch/arm/lib/built-in.o
                0x04001180                do_fiq
 .text.do_irq   0x040011a4       0x24 arch/arm/lib/built-in.o
                0x040011a4                do_irq
 .text.reset_misc
                0x040011c8        0x4 arch/arm/lib/built-in.o
                0x040011c8                reset_misc
 .text.do_reset
                0x040011cc       0x30 arch/arm/lib/built-in.o
                0x040011cc                do_reset
 .text.flush_cache
                0x040011fc        0x8 arch/arm/lib/built-in.o
                0x040011fc                flush_cache
 .text.check_cache_range
                0x04001204       0x38 arch/arm/lib/built-in.o
                0x04001204                check_cache_range
 .text.cp_delay
                0x0400123c       0x30 arch/arm/lib/built-in.o
 .text.cache_disable
                0x0400126c       0x48 arch/arm/lib/built-in.o
 .text.arm_init_domains
                0x040012b4        0x4 arch/arm/lib/built-in.o
                0x040012b4                arm_init_domains
 .text.set_section_dcache
                0x040012b8       0x14 arch/arm/lib/built-in.o
                0x040012b8                set_section_dcache
 .text.mmu_set_region_dcache_behaviour
                0x040012cc       0x58 arch/arm/lib/built-in.o
                0x040012cc                mmu_set_region_dcache_behaviour
 .text.dram_bank_mmu_setup
                0x04001324       0x44 arch/arm/lib/built-in.o
                0x04001324                dram_bank_mmu_setup
 .text.icache_enable
                0x04001368       0x1c arch/arm/lib/built-in.o
                0x04001368                icache_enable
 .text.icache_disable
                0x04001384        0x8 arch/arm/lib/built-in.o
                0x04001384                icache_disable
 .text.icache_status
                0x0400138c        0xc arch/arm/lib/built-in.o
                0x0400138c                icache_status
 .text.dcache_enable
                0x04001398       0x84 arch/arm/lib/built-in.o
                0x04001398                dcache_enable
 .text.dcache_disable
                0x0400141c        0x8 arch/arm/lib/built-in.o
                0x0400141c                dcache_disable
 .text.dcache_status
                0x04001424        0xc arch/arm/lib/built-in.o
                0x04001424                dcache_status
 .text          0x04001430       0x24 arch/arm/mach-zynq/built-in.o
                0x04001430                lowlevel_init
 .text.timer_init
                0x04001454       0x70 arch/arm/mach-zynq/built-in.o
                0x04001454                timer_init
 .text.get_tbclk
                0x040014c4        0x8 arch/arm/mach-zynq/built-in.o
                0x040014c4                get_tbclk
 .text.arch_cpu_init
                0x040014cc       0x7c arch/arm/mach-zynq/built-in.o
                0x040014cc                arch_cpu_init
 .text.reset_cpu
                0x04001548        0xc arch/arm/mach-zynq/built-in.o
                0x04001548                reset_cpu
 .text.enable_caches
                0x04001554        0x4 arch/arm/mach-zynq/built-in.o
                0x04001554                enable_caches
 .text.zynq_ddrc_init
                0x04001558       0x60 arch/arm/mach-zynq/built-in.o
                0x04001558                zynq_ddrc_init
 .text.zynq_slcr_lock
                0x040015b8       0x30 arch/arm/mach-zynq/built-in.o
                0x040015b8                zynq_slcr_lock
 .text.zynq_slcr_unlock
                0x040015e8       0x30 arch/arm/mach-zynq/built-in.o
                0x040015e8                zynq_slcr_unlock
 .text.zynq_slcr_cpu_reset
                0x04001618       0x28 arch/arm/mach-zynq/built-in.o
                0x04001618                zynq_slcr_cpu_reset
 .text.zynq_slcr_gem_clk_setup
                0x04001640       0x6c arch/arm/mach-zynq/built-in.o
                0x04001640                zynq_slcr_gem_clk_setup
 .text.zynq_slcr_devcfg_disable
                0x040016ac       0x40 arch/arm/mach-zynq/built-in.o
                0x040016ac                zynq_slcr_devcfg_disable
 .text.zynq_slcr_devcfg_enable
                0x040016ec       0x2c arch/arm/mach-zynq/built-in.o
                0x040016ec                zynq_slcr_devcfg_enable
 .text.zynq_slcr_get_boot_mode
                0x04001718       0x10 arch/arm/mach-zynq/built-in.o
                0x04001718                zynq_slcr_get_boot_mode
 .text.zynq_slcr_get_idcode
                0x04001728       0x14 arch/arm/mach-zynq/built-in.o
                0x04001728                zynq_slcr_get_idcode
 .text.ddr2x_get_rate
                0x0400173c       0x40 arch/arm/mach-zynq/built-in.o
 .text.ddr3x_get_rate
                0x0400177c       0x40 arch/arm/mach-zynq/built-in.o
 .text.zynq_clk_periph_get_rate
                0x040017bc       0x80 arch/arm/mach-zynq/built-in.o
 .text.__zynq_clk_pll_get_rate
                0x0400183c       0x24 arch/arm/mach-zynq/built-in.o
 .text.zynq_clk_pll_get_rate
                0x04001860        0x8 arch/arm/mach-zynq/built-in.o
 .text.zynq_clk_periph_set_rate
                0x04001868      0x124 arch/arm/mach-zynq/built-in.o
 .text.zynq_clk_register_periph_clk
                0x0400198c       0x60 arch/arm/mach-zynq/built-in.o
 .text.zynq_clk_early_init
                0x040019ec       0x5c arch/arm/mach-zynq/built-in.o
                0x040019ec                zynq_clk_early_init
 .text.get_uart_clk
                0x04001a48       0x54 arch/arm/mach-zynq/built-in.o
                0x04001a48                get_uart_clk
 .text.set_cpu_clk_info
                0x04001a9c      0x614 arch/arm/mach-zynq/built-in.o
                0x04001a9c                set_cpu_clk_info
 .text.zynq_clk_set_rate
                0x040020b0       0x40 arch/arm/mach-zynq/built-in.o
                0x040020b0                zynq_clk_set_rate
 .text.soc_clk_dump
                0x040020f0       0x50 arch/arm/mach-zynq/built-in.o
                0x040020f0                soc_clk_dump
 .text.board_init
                0x04002140      0x14c board/xilinx/zynq/built-in.o
                0x04002140                board_init
 .text.board_late_init
                0x0400228c       0x9c board/xilinx/zynq/built-in.o
                0x0400228c                board_late_init
 .text.checkboard
                0x04002328       0x18 board/xilinx/zynq/built-in.o
                0x04002328                checkboard
 .text.zynq_board_read_rom_ethaddr
                0x04002340        0x8 board/xilinx/zynq/built-in.o
                0x04002340                zynq_board_read_rom_ethaddr
 .text.dram_init_banksize
                0x04002348        0x4 board/xilinx/zynq/built-in.o
                0x04002348                dram_init_banksize
 .text.dram_init
                0x0400234c       0x20 board/xilinx/zynq/built-in.o
                0x0400234c                dram_init
 .text.do_go_exec
                0x0400236c       0x10 cmd/built-in.o
                0x0400236c                do_go_exec
 .text.do_go    0x0400237c       0x6c cmd/built-in.o
 .text.do_bootm
                0x040023e8      0x118 cmd/built-in.o
                0x040023e8                do_bootm
 .text.do_bootd
                0x04002500       0x20 cmd/built-in.o
                0x04002500                do_bootd
 .text.image_info
                0x04002520      0x124 cmd/built-in.o
 .text.do_iminfo
                0x04002644       0x60 cmd/built-in.o
 .text.bootm_maybe_autostart
                0x040026a4       0x78 cmd/built-in.o
                0x040026a4                bootm_maybe_autostart
 .text.do_help  0x0400271c       0x48 cmd/built-in.o
 .text.do_version
                0x04002764       0x38 cmd/built-in.o
 .text.source   0x0400279c      0x1c4 cmd/built-in.o
                0x0400279c                source
 .text.do_source
                0x04002960       0x70 cmd/built-in.o
 .text.print_num
                0x040029d0       0x18 cmd/built-in.o
 .text.do_bdinfo
                0x040029e8      0x11c cmd/built-in.o
 .text.bootefi_open_dp
                0x04002b04       0x14 cmd/built-in.o
 .text.do_bootefi_exec
                0x04002b18      0x298 cmd/built-in.o
 .text.do_bootefi
                0x04002db0       0x8c cmd/built-in.o
 .text.efi_set_bootdev
                0x04002e3c      0x128 cmd/built-in.o
                0x04002e3c                efi_set_bootdev
 .text.do_bootz
                0x04002f64       0xf8 cmd/built-in.o
                0x04002f64                do_bootz
 .text.parse_argv
                0x0400305c       0x64 cmd/built-in.o
 .text.do_icache
                0x040030c0       0x88 cmd/built-in.o
 .text.do_dcache
                0x04003148       0x88 cmd/built-in.o
 .text.do_clk   0x040031d0       0x68 cmd/built-in.o
 .text.do_clk_dump
                0x04003238        0x4 cmd/built-in.o
 .text.do_coninfo
                0x0400323c       0xb0 cmd/built-in.o
 .text.do_echo  0x040032ec       0xb0 cmd/built-in.o
 .text.parse_numeric_param
                0x0400339c       0x28 cmd/built-in.o
 .text.parse_i2c_bus_addr
                0x040033c4       0x90 cmd/built-in.o
 .text.eeprom_write_enable
                0x04003454        0x8 cmd/built-in.o
                0x04003454                eeprom_write_enable
 .text.eeprom_init
                0x0400345c       0x28 cmd/built-in.o
                0x0400345c                eeprom_init
 .text.eeprom_read
                0x04003484       0x6c cmd/built-in.o
                0x04003484                eeprom_read
 .text.eeprom_write
                0x040034f0       0x90 cmd/built-in.o
                0x040034f0                eeprom_write
 .text.do_eeprom
                0x04003580      0x194 cmd/built-in.o
                0x04003580                do_eeprom
 .text.load_elf_image_shdr
                0x04003714       0x8c cmd/built-in.o
 .text.valid_elf_image
                0x040037a0       0x4c cmd/built-in.o
                0x040037a0                valid_elf_image
 .text.do_bootelf
                0x040037ec      0x1b0 cmd/built-in.o
                0x040037ec                do_bootelf
 .text.do_bootvx
                0x0400399c      0x32c cmd/built-in.o
                0x0400399c                do_bootvx
 .text.do_exit  0x04003cc8       0x30 cmd/built-in.o
 .text.do_ext4_size
                0x04003cf8       0x18 cmd/built-in.o
                0x04003cf8                do_ext4_size
 .text.do_ext4_load
                0x04003d10       0x18 cmd/built-in.o
                0x04003d10                do_ext4_load
 .text.do_ext4_ls
                0x04003d28       0x18 cmd/built-in.o
                0x04003d28                do_ext4_ls
 .text.do_ext4_write
                0x04003d40       0x18 cmd/built-in.o
                0x04003d40                do_ext4_write
 .text.do_ext2load
                0x04003d58       0x18 cmd/built-in.o
                0x04003d58                do_ext2load
 .text.do_ext2ls
                0x04003d70       0x18 cmd/built-in.o
 .text.do_fat_size
                0x04003d88       0x18 cmd/built-in.o
                0x04003d88                do_fat_size
 .text.do_fat_fsload
                0x04003da0       0x18 cmd/built-in.o
                0x04003da0                do_fat_fsload
 .text.do_fat_ls
                0x04003db8       0x18 cmd/built-in.o
 .text.do_fat_fsinfo
                0x04003dd0       0x90 cmd/built-in.o
 .text.do_fat_fswrite
                0x04003e60      0x128 cmd/built-in.o
 .text.fdt_valid
                0x04003f88       0xbc cmd/built-in.o
 .text.is_printable_string
                0x04004044       0x98 cmd/built-in.o
 .text.print_data
                0x040040dc      0x174 cmd/built-in.o
 .text.set_working_fdt_addr
                0x04004250       0x1c cmd/built-in.o
                0x04004250                set_working_fdt_addr
 .text.do_fdt   0x0400426c      0xfa4 cmd/built-in.o
 .text.do_fpga  0x04005210      0x53c cmd/built-in.o
                0x04005210                do_fpga
 .text.do_size_wrapper
                0x0400574c       0x18 cmd/built-in.o
 .text.do_load_wrapper
                0x04005764       0x64 cmd/built-in.o
 .text.do_save_wrapper
                0x040057c8       0x18 cmd/built-in.o
 .text.do_ls_wrapper
                0x040057e0       0x18 cmd/built-in.o
 .text.do_fstype_wrapper
                0x040057f8        0x4 cmd/built-in.o
 .text.gpio_get_description
                0x040057fc       0xc8 cmd/built-in.o
 .text.do_gpio  0x040058c4      0x378 cmd/built-in.o
 .text.do_i2c   0x04005c3c       0x68 cmd/built-in.o
 .text.do_i2c_bus_speed
                0x04005ca4       0x78 cmd/built-in.o
 .text.do_i2c_reset
                0x04005d1c       0x30 cmd/built-in.o
 .text.do_i2c_probe
                0x04005d4c       0x9c cmd/built-in.o
 .text.do_i2c_bus_num
                0x04005de8       0xbc cmd/built-in.o
 .text.do_i2c_show_bus
                0x04005ea4       0xd8 cmd/built-in.o
 .text.get_alen.constprop.4
                0x04005f7c       0x3c cmd/built-in.o
 .text.do_i2c_crc
                0x04005fb8      0x124 cmd/built-in.o
 .text.do_i2c_read
                0x040060dc       0xbc cmd/built-in.o
 .text.do_i2c_md
                0x04006198      0x1e8 cmd/built-in.o
 .text.do_i2c_mw
                0x04006380      0x100 cmd/built-in.o
 .text.do_i2c_write
                0x04006480      0x14c cmd/built-in.o
 .text.mod_i2c_mem.isra.3
                0x040065cc      0x20c cmd/built-in.o
 .text.do_i2c_nm
                0x040067d8        0x8 cmd/built-in.o
 .text.do_i2c_mm
                0x040067e0        0x8 cmd/built-in.o
 .text.do_i2c_loop
                0x040067e8       0xe4 cmd/built-in.o
 .text.i2c_init_board
                0x040068cc        0x4 cmd/built-in.o
                0x040068cc                i2c_init_board
 .text.evalexp  0x040068d0       0x78 cmd/built-in.o
 .text.evalstr  0x04006948       0x6c cmd/built-in.o
 .text.binary_test
                0x040069b4      0x1b0 cmd/built-in.o
 .text.do_itest
                0x04006b64       0x98 cmd/built-in.o
 .text.bin_data_init
                0x04006bfc       0x2c cmd/built-in.o
 .text.k_data_save
                0x04006c28       0x4c cmd/built-in.o
 .text.k_data_restore
                0x04006c74       0x4c cmd/built-in.o
 .text.getcxmodem
                0x04006cc0       0x20 cmd/built-in.o
 .text.load_serial_ymodem
                0x04006ce0       0xd0 cmd/built-in.o
 .text.bin_data_char
                0x04006db0       0x2c cmd/built-in.o
 .text.chk1.constprop.1
                0x04006ddc       0x2c cmd/built-in.o
 .text.s1_sendpacket.constprop.2
                0x04006e08       0x50 cmd/built-in.o
 .text.load_serial
                0x04006e58      0x1e0 cmd/built-in.o
 .text.do_load_serial
                0x04007038       0xdc cmd/built-in.o
 .text.do_load_serial_bin
                0x04007114      0x7a4 cmd/built-in.o
 .text.do_mem_mw
                0x040078b8       0xc0 cmd/built-in.o
 .text.do_mem_loop
                0x04007978       0xec cmd/built-in.o
 .text.do_mem_md
                0x04007a64       0xec cmd/built-in.o
 .text.do_mem_cmp
                0x04007b50      0x16c cmd/built-in.o
 .text.do_mem_base
                0x04007cbc       0x40 cmd/built-in.o
 .text.do_mem_cp
                0x04007cfc       0xd8 cmd/built-in.o
 .text.do_mem_crc
                0x04007dd4       0x48 cmd/built-in.o
 .text.mod_mem.isra.2
                0x04007e1c      0x164 cmd/built-in.o
 .text.do_mem_mm
                0x04007f80        0x8 cmd/built-in.o
 .text.do_mem_nm
                0x04007f88        0x8 cmd/built-in.o
 .text.extract_range
                0x04007f90       0xe4 cmd/built-in.o
 .text.do_mii   0x04008074      0x8d4 cmd/built-in.o
 .text.do_mdio  0x04008948      0x4b4 cmd/built-in.o
 .text.do_sleep
                0x04008dfc       0xcc cmd/built-in.o
 .text.do_mmcops
                0x04008ec8       0xb8 cmd/built-in.o
 .text.init_mmc_device
                0x04008f80       0x54 cmd/built-in.o
 .text.do_mmc_rescan
                0x04008fd4       0x24 cmd/built-in.o
 .text.do_mmc_hwpartition
                0x04008ff8      0x50c cmd/built-in.o
 .text.do_mmc_list
                0x04009504       0x14 cmd/built-in.o
 .text.do_mmc_dev
                0x04009518      0x140 cmd/built-in.o
 .text.do_mmc_part
                0x04009658       0x60 cmd/built-in.o
 .text.do_mmc_erase
                0x040096b8       0xe8 cmd/built-in.o
 .text.do_mmc_write
                0x040097a0      0x100 cmd/built-in.o
 .text.do_mmc_read
                0x040098a0       0xec cmd/built-in.o
 .text.do_mmcinfo
                0x0400998c      0x370 cmd/built-in.o
 .text.do_mmc_setdsr
                0x04009cfc       0xb0 cmd/built-in.o
 .text.netboot_common
                0x04009dac      0x2e4 cmd/built-in.o
 .text.do_bootp
                0x0400a090        0xc cmd/built-in.o
 .text.do_tftpput
                0x0400a09c        0xc cmd/built-in.o
                0x0400a09c                do_tftpput
 .text.do_dhcp  0x0400a0a8        0xc cmd/built-in.o
 .text.do_nfs   0x0400a0b4        0xc cmd/built-in.o
 .text.do_tftpb
                0x0400a0c0       0x40 cmd/built-in.o
                0x0400a0c0                do_tftpb
 .text.do_ping  0x0400a100       0x7c cmd/built-in.o
 .text.bytes_per_second
                0x0400a17c       0x50 cmd/built-in.o
 .text.do_spi_flash
                0x0400a1cc      0x8a0 cmd/built-in.o
 .text.do_false
                0x0400aa6c        0x8 cmd/built-in.o
 .text.do_true  0x0400aa74        0x8 cmd/built-in.o
 .text.do_test  0x0400aa7c      0x33c cmd/built-in.o
 .text.usb_get_class_desc
                0x0400adb8       0xbc cmd/built-in.o
 .text.usb_display_class_sub
                0x0400ae74      0x170 cmd/built-in.o
 .text.usb_show_tree_graph
                0x0400afe4      0x1dc cmd/built-in.o
 .text.usb_show_subtree
                0x0400b1c0       0x30 cmd/built-in.o
 .text.usb_for_each_root_dev
                0x0400b1f0       0x68 cmd/built-in.o
 .text.usb_display_string
                0x0400b258       0x44 cmd/built-in.o
 .text.usb_display_config
                0x0400b29c      0x20c cmd/built-in.o
 .text.usb_find_device
                0x0400b4a8       0xb4 cmd/built-in.o
 .text.do_usbboot
                0x0400b55c        0xc cmd/built-in.o
 .text.usb_display_desc.part.3
                0x0400b568      0x12c cmd/built-in.o
 .text.do_usb_start
                0x0400b694       0x30 cmd/built-in.o
 .text.usb_show_info
                0x0400b6c4       0x60 cmd/built-in.o
 .text.usb_show_tree
                0x0400b724        0xc cmd/built-in.o
                0x0400b724                usb_show_tree
 .text.do_usb   0x0400b730      0x734 cmd/built-in.o
 .text.common_diskboot
                0x0400be64      0x2a8 cmd/built-in.o
                0x0400be64                common_diskboot
 .text.do_thor_down
                0x0400c10c      0x104 cmd/built-in.o
                0x0400c10c                do_thor_down
 .text.do_imgextract
                0x0400c210      0x3c0 cmd/built-in.o
 .text.do_spl   0x0400c5d0      0x1a0 cmd/built-in.o
 .text.do_dfu   0x0400c770       0x84 cmd/built-in.o
 .text.do_env_delete
                0x0400c7f4       0x9c cmd/built-in.o
 .text.do_env_exists
                0x0400c890       0x64 cmd/built-in.o
 .text.do_env_save
                0x0400c8f4       0x2c cmd/built-in.o
 .text.do_env   0x0400c920       0x68 cmd/built-in.o
 .text.env_print
                0x0400c988       0xc0 cmd/built-in.o
 .text.do_env_print
                0x0400ca48       0xc8 cmd/built-in.o
 .text.do_env_import
                0x0400cb10      0x28c cmd/built-in.o
 .text.do_env_default
                0x0400cd9c       0xa8 cmd/built-in.o
 .text._do_env_set.isra.1
                0x0400ce44      0x1bc cmd/built-in.o
 .text.do_env_set
                0x0400d000       0x20 cmd/built-in.o
 .text.get_env_id
                0x0400d020       0x10 cmd/built-in.o
                0x0400d020                get_env_id
 .text.setenv   0x0400d030       0x5c cmd/built-in.o
                0x0400d030                setenv
 .text.setenv_ulong
                0x0400d08c       0x20 cmd/built-in.o
                0x0400d08c                setenv_ulong
 .text.setenv_hex
                0x0400d0ac       0x34 cmd/built-in.o
                0x0400d0ac                setenv_hex
 .text.do_env_export
                0x0400d0e0      0x268 cmd/built-in.o
 .text.envmatch
                0x0400d348       0x6c cmd/built-in.o
                0x0400d348                envmatch
 .text.getenv_f
                0x0400d3b4       0xc8 cmd/built-in.o
                0x0400d3b4                getenv_f
 .text.getenv   0x0400d47c       0x78 cmd/built-in.o
                0x0400d47c                getenv
 .text.getenv_hex
                0x0400d4f4       0x3c cmd/built-in.o
                0x0400d4f4                getenv_hex
 .text.getenv_ulong
                0x0400d530       0x30 cmd/built-in.o
                0x0400d530                getenv_ulong
 .text.do_env_edit.part.3
                0x0400d560       0xa4 cmd/built-in.o
 .text.do_env_edit
                0x0400d604       0x2c cmd/built-in.o
 .text.board_init_f_alloc_reserve
                0x0400d630       0x10 common/built-in.o
                0x0400d630                board_init_f_alloc_reserve
 .text.board_init_f_init_reserve
                0x0400d640       0x20 common/built-in.o
                0x0400d640                board_init_f_init_reserve
 .text.show_boot_progress
                0x0400d660        0x8 common/built-in.o
                0x0400d660                show_boot_progress
 .text.main_loop
                0x0400d668       0x6c common/built-in.o
                0x0400d668                main_loop
 .text.dummy    0x0400d6d4        0x4 common/built-in.o
 .text.get_version
                0x0400d6d8        0x8 common/built-in.o
                0x0400d6d8                get_version
 .text.jumptable_init
                0x0400d6e0      0x1f0 common/built-in.o
                0x0400d6e0                jumptable_init
 .text.hash_finish_crc32
                0x0400d8d0       0x30 common/built-in.o
 .text.hash_update_crc32
                0x0400d900       0x24 common/built-in.o
 .text.hash_init_crc32
                0x0400d924       0x24 common/built-in.o
 .text.hash_finish_sha256
                0x0400d948       0x38 common/built-in.o
 .text.hash_update_sha256
                0x0400d980       0x1c common/built-in.o
 .text.hash_init_sha256
                0x0400d99c       0x24 common/built-in.o
 .text.hash_finish_sha1
                0x0400d9c0       0x38 common/built-in.o
 .text.hash_update_sha1
                0x0400d9f8       0x1c common/built-in.o
 .text.hash_init_sha1
                0x0400da14       0x24 common/built-in.o
 .text.hash_lookup_algo
                0x0400da38       0x58 common/built-in.o
                0x0400da38                hash_lookup_algo
 .text.hash_progressive_lookup_algo
                0x0400da90       0x60 common/built-in.o
                0x0400da90                hash_progressive_lookup_algo
 .text.hash_command
                0x0400daf0      0x1b8 common/built-in.o
                0x0400daf0                hash_command
 .text.b_reset  0x0400dca8       0x1c common/built-in.o
 .text.static_get
                0x0400dcc4       0x1c common/built-in.o
 .text.static_peek
                0x0400dce0        0xc common/built-in.o
 .text.file_peek
                0x0400dcec        0xc common/built-in.o
 .text.mapset   0x0400dcf8       0x20 common/built-in.o
 .text.syntax_err
                0x0400dd18        0xc common/built-in.o
 .text.free_pipe_list
                0x0400dd24       0xf0 common/built-in.o
 .text.xmalloc  0x0400de14       0x20 common/built-in.o
 .text.new_pipe
                0x0400de34       0x28 common/built-in.o
 .text.xrealloc
                0x0400de5c       0x20 common/built-in.o
 .text.done_command
                0x0400de7c       0x88 common/built-in.o
 .text.done_pipe
                0x0400df04       0x48 common/built-in.o
 .text.done_word
                0x0400df4c      0x2e4 common/built-in.o
 .text.do_showvar
                0x0400e230       0xfc common/built-in.o
 .text.is_assignment
                0x0400e32c       0x5c common/built-in.o
 .text.file_get
                0x0400e388      0x1f0 common/built-in.o
 .text.b_addchr
                0x0400e578       0x78 common/built-in.o
 .text.b_addqchr
                0x0400e5f0       0x50 common/built-in.o
 .text.get_local_var
                0x0400e640       0xa0 common/built-in.o
                0x0400e640                get_local_var
 .text.set_local_var
                0x0400e6e0      0x1bc common/built-in.o
                0x0400e6e0                set_local_var
 .text.insert_var_value_sub
                0x0400e89c      0x2c0 common/built-in.o
 .text.parse_string_outer
                0x0400eb5c       0xe4 common/built-in.o
                0x0400eb5c                parse_string_outer
 .text.run_list_real
                0x0400ec40      0x7f4 common/built-in.o
 .text.parse_stream_outer
                0x0400f434      0x6d4 common/built-in.o
 .text.parse_file_outer
                0x0400fb08       0x44 common/built-in.o
                0x0400fb08                parse_file_outer
 .text.u_boot_hush_start
                0x0400fb4c       0x54 common/built-in.o
                0x0400fb4c                u_boot_hush_start
 .text.bootdelay_process
                0x0400fba0       0xbc common/built-in.o
                0x0400fba0                bootdelay_process
 .text.autoboot_command
                0x0400fc5c       0xf8 common/built-in.o
                0x0400fc5c                autoboot_command
 .text.print_cpuinfo
                0x0400fd54        0x8 common/built-in.o
 .text.display_text_info
                0x0400fd5c        0x8 common/built-in.o
 .text.setup_mon_len
                0x0400fd64       0x20 common/built-in.o
 .text.mach_cpu_init
                0x0400fd84        0x8 common/built-in.o
                0x0400fd84                mach_cpu_init
 .text.reserve_round_4k
                0x0400fd8c       0x18 common/built-in.o
 .text.reserve_mmu
                0x0400fda4       0x38 common/built-in.o
 .text.reserve_trace
                0x0400fddc        0x8 common/built-in.o
 .text.reserve_uboot
                0x0400fde4       0x30 common/built-in.o
 .text.reserve_malloc
                0x0400fe14       0x18 common/built-in.o
 .text.setup_machine
                0x0400fe2c        0x8 common/built-in.o
 .text.reserve_global_data
                0x0400fe34       0x1c common/built-in.o
 .text.reserve_fdt
                0x0400fe50        0x8 common/built-in.o
 .text.display_new_sp
                0x0400fe58        0x8 common/built-in.o
 .text.reloc_fdt
                0x0400fe60        0x8 common/built-in.o
 .text.initf_console_record
                0x0400fe68        0x8 common/built-in.o
 .text.reserve_arch
                0x0400fe70        0x8 common/built-in.o
                0x0400fe70                reserve_arch
 .text.arch_cpu_init_dm
                0x0400fe78        0x8 common/built-in.o
                0x0400fe78                arch_cpu_init_dm
 .text.announce_dram_init
                0x0400fe80       0x18 common/built-in.o
 .text.init_func_i2c
                0x0400fe98       0x28 common/built-in.o
 .text.init_baud_rate
                0x0400fec0       0x2c common/built-in.o
 .text.mark_bootstage
                0x0400feec       0x14 common/built-in.o
 .text.initf_dm
                0x0400ff00        0x8 common/built-in.o
 .text.setup_reloc
                0x0400ff08       0x34 common/built-in.o
 .text.reserve_board
                0x0400ff3c       0x38 common/built-in.o
 .text.coloured_LED_init
                0x0400ff74        0x4 common/built-in.o
                0x0400ff74                coloured_LED_init
 .text.red_led_on
                0x0400ff78        0x4 common/built-in.o
                0x0400ff78                red_led_on
 .text.board_add_ram_info
                0x0400ff7c        0x4 common/built-in.o
                0x0400ff7c                board_add_ram_info
 .text.show_dram_config
                0x0400ff80       0x38 common/built-in.o
 .text.setup_dram_config
                0x0400ffb8       0x10 common/built-in.o
 .text.board_get_usable_ram_top
                0x0400ffc8        0x8 common/built-in.o
                0x0400ffc8                board_get_usable_ram_top
 .text.board_reserve_ram_top
                0x0400ffd0        0x4 common/built-in.o
                0x0400ffd0                board_reserve_ram_top
 .text.setup_dest_addr
                0x0400ffd4       0x44 common/built-in.o
 .text.reserve_stacks
                0x04010018       0x1c common/built-in.o
 .text.board_init_f
                0x04010034       0x28 common/built-in.o
                0x04010034                board_init_f
 .text.bootstage_relocate
                0x0401005c        0x8 common/built-in.o
 .text.initr_trace
                0x04010064        0x8 common/built-in.o
 .text.initr_reloc
                0x0401006c       0x18 common/built-in.o
 .text.initr_barrier
                0x04010084        0x8 common/built-in.o
 .text.initr_console_record
                0x0401008c        0x8 common/built-in.o
 .text.power_init_board
                0x04010094        0x8 common/built-in.o
                0x04010094                power_init_board
 .text.initr_announce
                0x0401009c        0x8 common/built-in.o
 .text.run_main_loop
                0x040100a4        0xc common/built-in.o
 .text.initr_net
                0x040100b0       0x1c common/built-in.o
 .text.initr_ethaddr
                0x040100cc       0x20 common/built-in.o
 .text.initr_enable_interrupts
                0x040100ec       0x10 common/built-in.o
 .text.initr_jumptable
                0x040100fc       0x10 common/built-in.o
 .text.initr_env
                0x0401010c       0x64 common/built-in.o
 .text.initr_mmc
                0x04010170       0x20 common/built-in.o
 .text.initr_serial
                0x04010190       0x10 common/built-in.o
 .text.initr_bootstage
                0x040101a0       0x14 common/built-in.o
 .text.initr_dm
                0x040101b4       0x14 common/built-in.o
 .text.initr_malloc
                0x040101c8       0x24 common/built-in.o
 .text.initr_reloc_global_data
                0x040101ec       0x48 common/built-in.o
 .text.initr_caches
                0x04010234       0x10 common/built-in.o
 .text.cpu_secondary_init_r
                0x04010244        0x4 common/built-in.o
                0x04010244                cpu_secondary_init_r
 .text.initr_secondary_cpu
                0x04010248       0x10 common/built-in.o
 .text.board_init_r
                0x04010258       0x14 common/built-in.o
                0x04010258                board_init_r
 .text.show_board_info
                0x0401026c       0x38 common/built-in.o
                0x0401026c                show_board_info
 .text.bootm_find_images
                0x040102a4      0x100 common/built-in.o
                0x040102a4                bootm_find_images
 .text.bootm_decomp_image
                0x040103a4      0x150 common/built-in.o
                0x040103a4                bootm_decomp_image
 .text.bootm_disable_interrupts
                0x040104f4       0x18 common/built-in.o
                0x040104f4                bootm_disable_interrupts
 .text.do_bootm_states
                0x0401050c      0x8dc common/built-in.o
                0x0401050c                do_bootm_states
 .text.do_bootm_rtems
                0x04010de8       0x70 common/built-in.o
 .text.do_bootm_standalone
                0x04010e58       0x64 common/built-in.o
 .text.do_bootm_qnxelf
                0x04010ebc       0x8c common/built-in.o
 .text.do_bootm_plan9
                0x04010f48      0x100 common/built-in.o
 .text.do_bootvx_fdt
                0x04011048      0x118 common/built-in.o
                0x04011048                do_bootvx_fdt
 .text.do_bootm_vxworks
                0x04011160       0x54 common/built-in.o
 .text.arch_preboot_os
                0x040111b4        0x4 common/built-in.o
                0x040111b4                arch_preboot_os
 .text.boot_selected_os
                0x040111b8       0x58 common/built-in.o
                0x040111b8                boot_selected_os
 .text.bootm_os_get_boot_func
                0x04011210       0x10 common/built-in.o
                0x04011210                bootm_os_get_boot_func
 .text.regex_callback
                0x04011220      0x134 common/built-in.o
 .text.env_attr_walk
                0x04011354      0x11c common/built-in.o
                0x04011354                env_attr_walk
 .text.env_attr_lookup
                0x04011470       0x84 common/built-in.o
                0x04011470                env_attr_lookup
 .text.clear_callback
                0x040114f4       0x10 common/built-in.o
 .text.find_env_callback
                0x04011504       0x68 common/built-in.o
 .text.on_callbacks
                0x0401156c       0x50 common/built-in.o
 .text.set_callback
                0x040115bc       0x98 common/built-in.o
 .text.env_callback_init
                0x04011654       0xc4 common/built-in.o
                0x04011654                env_callback_init
 .text.skip_num
                0x04011718       0x70 common/built-in.o
 .text.clear_flags
                0x04011788       0x10 common/built-in.o
 .text.on_flags
                0x04011798       0x50 common/built-in.o
 .text.env_flags_parse_vartype
                0x040117e8       0x50 common/built-in.o
                0x040117e8                env_flags_parse_vartype
 .text.env_flags_parse_varaccess
                0x04011838       0x58 common/built-in.o
                0x04011838                env_flags_parse_varaccess
 .text.set_flags
                0x04011890       0xb0 common/built-in.o
 .text.eth_validate_ethaddr_str
                0x04011940       0x94 common/built-in.o
                0x04011940                eth_validate_ethaddr_str
 .text.env_flags_init
                0x040119d4       0xd8 common/built-in.o
                0x040119d4                env_flags_init
 .text.env_flags_validate
                0x04011aac      0x2b4 common/built-in.o
                0x04011aac                env_flags_validate
 .text.saveenv  0x04011d60       0xd8 common/built-in.o
                0x04011d60                saveenv
 .text.env_relocate_spec
                0x04011e38       0xcc common/built-in.o
                0x04011e38                env_relocate_spec
 .text.env_init
                0x04011f04       0x1c common/built-in.o
                0x04011f04                env_init
 .text.of_bus_default_map
                0x04011f20       0xdc common/built-in.o
 .text.of_bus_default_count_cells
                0x04011ffc       0x58 common/built-in.o
                0x04011ffc                of_bus_default_count_cells
 .text.of_bus_default_translate
                0x04012054       0xa0 common/built-in.o
 .text.fdt_find_and_setprop
                0x040120f4       0x70 common/built-in.o
                0x040120f4                fdt_find_and_setprop
 .text.fdt_find_or_add_subnode
                0x04012164       0x68 common/built-in.o
                0x04012164                fdt_find_or_add_subnode
 .text.fdt_root
                0x040121cc       0x90 common/built-in.o
                0x040121cc                fdt_root
 .text.fdt_initrd
                0x0401225c      0x1d4 common/built-in.o
                0x0401225c                fdt_initrd
 .text.fdt_chosen
                0x04012430       0xa8 common/built-in.o
                0x04012430                fdt_chosen
 .text.do_fixup_by_path
                0x040124d8       0x54 common/built-in.o
                0x040124d8                do_fixup_by_path
 .text.fdt_fixup_memory_banks
                0x0401252c      0x1b0 common/built-in.o
                0x0401252c                fdt_fixup_memory_banks
 .text.fdt_fixup_memory
                0x040126dc       0x20 common/built-in.o
                0x040126dc                fdt_fixup_memory
 .text.fdt_fixup_ethernet
                0x040126fc      0x190 common/built-in.o
                0x040126fc                fdt_fixup_ethernet
 .text.fdt_shrink_to_minimum
                0x0401288c       0xd4 common/built-in.o
                0x0401288c                fdt_shrink_to_minimum
 .text.fdt_translate_address
                0x04012960      0x29c common/built-in.o
                0x04012960                fdt_translate_address
 .text.miiphy_get_dev_by_name
                0x04012bfc       0x60 common/built-in.o
                0x04012bfc                miiphy_get_dev_by_name
 .text.miiphy_init
                0x04012c5c       0x24 common/built-in.o
                0x04012c5c                miiphy_init
 .text.mdio_alloc
                0x04012c80       0x30 common/built-in.o
                0x04012c80                mdio_alloc
 .text.mdio_free
                0x04012cb0        0x4 common/built-in.o
                0x04012cb0                mdio_free
 .text.mdio_register
                0x04012cb4       0xa0 common/built-in.o
                0x04012cb4                mdio_register
 .text.mdio_register_seq
                0x04012d54       0x34 common/built-in.o
                0x04012d54                mdio_register_seq
 .text.mdio_unregister
                0x04012d88       0x3c common/built-in.o
                0x04012d88                mdio_unregister
 .text.mdio_list_devices
                0x04012dc4       0x9c common/built-in.o
                0x04012dc4                mdio_list_devices
 .text.miiphy_set_current_dev
                0x04012e60       0x40 common/built-in.o
                0x04012e60                miiphy_set_current_dev
 .text.miiphy_get_active_dev
                0x04012ea0       0x54 common/built-in.o
 .text.mdio_get_current_dev
                0x04012ef4       0x10 common/built-in.o
                0x04012ef4                mdio_get_current_dev
 .text.mdio_phydev_for_ethname
                0x04012f04       0x8c common/built-in.o
                0x04012f04                mdio_phydev_for_ethname
 .text.miiphy_get_current_dev
                0x04012f90       0x18 common/built-in.o
                0x04012f90                miiphy_get_current_dev
 .text.miiphy_read
                0x04012fa8       0x4c common/built-in.o
                0x04012fa8                miiphy_read
 .text.miiphy_write
                0x04012ff4       0x40 common/built-in.o
                0x04012ff4                miiphy_write
 .text.miiphy_listdev
                0x04013034       0x74 common/built-in.o
                0x04013034                miiphy_listdev
 .text.miiphy_info
                0x040130a8       0x88 common/built-in.o
                0x040130a8                miiphy_info
 .text.miiphy_speed
                0x04013130       0xc8 common/built-in.o
                0x04013130                miiphy_speed
 .text.miiphy_duplex
                0x040131f8       0xc0 common/built-in.o
                0x040131f8                miiphy_duplex
 .text.miiphy_is_1000base_x
                0x040132b8        0x8 common/built-in.o
                0x040132b8                miiphy_is_1000base_x
 .text.usb_set_maxpacket_ep
                0x040132c0       0x70 common/built-in.o
 .text.usb_control_msg
                0x04013330       0x9c common/built-in.o
                0x04013330                usb_control_msg
 .text.usb_get_descriptor
                0x040133cc       0x54 common/built-in.o
 .text.get_descriptor_len
                0x04013420       0x90 common/built-in.o
 .text.usb_get_string
                0x040134b0       0x6c common/built-in.o
 .text.usb_string_sub
                0x0401351c      0x108 common/built-in.o
 .text.usb_bulk_msg
                0x04013624       0x78 common/built-in.o
                0x04013624                usb_bulk_msg
 .text.usb_maxpacket
                0x0401369c       0x1c common/built-in.o
                0x0401369c                usb_maxpacket
 .text.usb_clear_halt
                0x040136b8       0x8c common/built-in.o
                0x040136b8                usb_clear_halt
 .text.usb_get_configuration_len
                0x04013744       0x74 common/built-in.o
                0x04013744                usb_get_configuration_len
 .text.usb_get_configuration_no
                0x040137b8       0x34 common/built-in.o
                0x040137b8                usb_get_configuration_no
 .text.usb_set_interface
                0x040137ec       0xbc common/built-in.o
                0x040137ec                usb_set_interface
 .text.usb_string
                0x040138a8      0x104 common/built-in.o
                0x040138a8                usb_string
 .text.usb_select_config
                0x040139ac      0x478 common/built-in.o
                0x040139ac                usb_select_config
 .text.usb_setup_device
                0x04013e24      0x188 common/built-in.o
                0x04013e24                usb_setup_device
 .text.board_usb_init
                0x04013fac        0x8 common/built-in.o
                0x04013fac                board_usb_init
 .text.board_usb_cleanup
                0x04013fb4        0x8 common/built-in.o
                0x04013fb4                board_usb_cleanup
 .text.usb_device_has_child_on_port
                0x04013fbc        0x8 common/built-in.o
                0x04013fbc                usb_device_has_child_on_port
 .text.usb_find_usb2_hub_address_port
                0x04013fc4       0x78 common/built-in.o
                0x04013fc4                usb_find_usb2_hub_address_port
 .text.usb_set_port_feature
                0x0401403c       0x4c common/built-in.o
 .text.usb_clear_port_feature
                0x04014088       0x4c common/built-in.o
 .text.usb_get_hub_descriptor
                0x040140d4       0x4c common/built-in.o
 .text.usb_hub_reset_devices
                0x04014120        0x4 common/built-in.o
                0x04014120                usb_hub_reset_devices
 .text.usb_get_port_status
                0x04014124       0x4c common/built-in.o
                0x04014124                usb_get_port_status
 .text.usb_hub_reset
                0x04014170       0x20 common/built-in.o
                0x04014170                usb_hub_reset
 .text.legacy_hub_port_reset
                0x04014190       0x9c common/built-in.o
                0x04014190                legacy_hub_port_reset
 .text.usb_hub_port_connect_change
                0x0401422c      0x118 common/built-in.o
                0x0401422c                usb_hub_port_connect_change
 .text.usb_hub_configure
                0x04014344      0x4d4 common/built-in.o
 .text.usb_hub_scan
                0x04014818       0x10 common/built-in.o
                0x04014818                usb_hub_scan
 .text.usb_hub_post_probe
                0x04014828        0x4 common/built-in.o
 .text.usb_stor_irq
                0x0401482c       0x1c common/built-in.o
 .text.usb_stor_BBB_reset
                0x04014848       0xcc common/built-in.o
 .text.usb_stor_CB_reset
                0x04014914       0xcc common/built-in.o
 .text.usb_stor_BBB_clear_endpt_stall.isra.0
                0x040149e0       0x40 common/built-in.o
 .text.usb_stor_BBB_transport
                0x04014a20      0x25c common/built-in.o
 .text.usb_stor_CB_comdat
                0x04014c7c      0x1f8 common/built-in.o
 .text.usb_stor_CBI_get_status.isra.2
                0x04014e74       0xc8 common/built-in.o
 .text.usb_stor_CB_transport
                0x04014f3c      0x228 common/built-in.o
 .text.usb_request_sense.constprop.10
                0x04015164       0x70 common/built-in.o
 .text.usb_stor_read
                0x040151d4      0x168 common/built-in.o
 .text.usb_stor_write
                0x0401533c      0x168 common/built-in.o
 .text.usb_stor_info
                0x040154a4       0x70 common/built-in.o
                0x040154a4                usb_stor_info
 .text.usb_stor_reset
                0x04015514       0x14 common/built-in.o
                0x04015514                usb_stor_reset
 .text.usb_stor_scan
                0x04015528       0x48 common/built-in.o
                0x04015528                usb_stor_scan
 .text.usb_storage_probe
                0x04015570      0x210 common/built-in.o
                0x04015570                usb_storage_probe
 .text.usb_stor_get_info
                0x04015780      0x318 common/built-in.o
                0x04015780                usb_stor_get_info
 .text.usb_mass_storage_probe
                0x04015a98      0x17c common/built-in.o
 .text.env_get_char_spec
                0x04015c14        0xc common/built-in.o
                0x04015c14                env_get_char_spec
 .text.env_get_addr
                0x04015c20       0x20 common/built-in.o
                0x04015c20                env_get_addr
 .text.env_get_char_memory
                0x04015c40       0x10 common/built-in.o
                0x04015c40                env_get_char_memory
 .text.env_get_char
                0x04015c50       0x30 common/built-in.o
                0x04015c50                env_get_char
 .text.getenv_yesno
                0x04015c80       0x40 common/built-in.o
                0x04015c80                getenv_yesno
 .text.getenv_default
                0x04015cc0       0x30 common/built-in.o
                0x04015cc0                getenv_default
 .text.set_default_env
                0x04015cf0       0xcc common/built-in.o
                0x04015cf0                set_default_env
 .text.set_default_vars
                0x04015dbc       0x3c common/built-in.o
                0x04015dbc                set_default_vars
 .text.env_import
                0x04015df8       0xe4 common/built-in.o
                0x04015df8                env_import
 .text.env_export
                0x04015edc       0xa4 common/built-in.o
                0x04015edc                env_export
 .text.env_relocate
                0x04015f80       0x30 common/built-in.o
                0x04015f80                env_relocate
 .text.env_complete
                0x04015fb0       0xdc common/built-in.o
                0x04015fb0                env_complete
 .text.console_setfile
                0x0401608c       0xc0 common/built-in.o
 .text.puts     0x0401614c       0x78 common/built-in.o
                0x0401614c                puts
 .text.putc     0x040161c4       0x50 common/built-in.o
                0x040161c4                putc
 .text.fgetc    0x04016214       0x24 common/built-in.o
                0x04016214                fgetc
 .text.getc     0x04016238       0x24 common/built-in.o
                0x04016238                getc
 .text.ftstc    0x0401625c       0x24 common/built-in.o
                0x0401625c                ftstc
 .text.tstc     0x04016280       0x24 common/built-in.o
                0x04016280                tstc
 .text.ctrlc    0x040162a4       0x58 common/built-in.o
                0x040162a4                ctrlc
 .text.disable_ctrlc
                0x040162fc       0x18 common/built-in.o
                0x040162fc                disable_ctrlc
 .text.had_ctrlc
                0x04016314       0x10 common/built-in.o
                0x04016314                had_ctrlc
 .text.clear_ctrlc
                0x04016324       0x14 common/built-in.o
                0x04016324                clear_ctrlc
 .text.search_device
                0x04016338       0x28 common/built-in.o
                0x04016338                search_device
 .text.console_assign
                0x04016360       0x48 common/built-in.o
                0x04016360                console_assign
 .text.on_console
                0x040163a8       0xc0 common/built-in.o
 .text.console_init_f
                0x04016468       0x10 common/built-in.o
                0x04016468                console_init_f
 .text.stdio_print_current_devices
                0x04016478       0xb0 common/built-in.o
                0x04016478                stdio_print_current_devices
 .text.console_init_r
                0x04016528       0xe0 common/built-in.o
                0x04016528                console_init_r
 .text.sbrk     0x04016608       0x70 common/built-in.o
                0x04016608                sbrk
 .text.mem_malloc_init
                0x04016678       0x34 common/built-in.o
                0x04016678                mem_malloc_init
 .text.malloc_trim
                0x040166ac       0xcc common/built-in.o
                0x040166ac                malloc_trim
 .text.free     0x04016778      0x248 common/built-in.o
                0x04016778                free
 .text.malloc   0x040169c0      0x61c common/built-in.o
                0x040169c0                malloc
 .text.calloc   0x04016fdc      0x148 common/built-in.o
                0x04016fdc                calloc
 .text.realloc  0x04017124      0x438 common/built-in.o
                0x04017124                realloc
 .text.memalign
                0x0401755c      0x170 common/built-in.o
                0x0401755c                memalign
 .text.initf_malloc
                0x040176cc       0x18 common/built-in.o
                0x040176cc                initf_malloc
 .text.malloc_simple
                0x040176e4       0x30 common/built-in.o
                0x040176e4                malloc_simple
 .text.on_loadaddr
                0x04017714       0x38 common/built-in.o
 .text.image_check_hcrc
                0x0401774c       0x4c common/built-in.o
                0x0401774c                image_check_hcrc
 .text.image_check_dcrc
                0x04017798       0x38 common/built-in.o
                0x04017798                image_check_dcrc
 .text.image_multi_count
                0x040177d0       0x1c common/built-in.o
                0x040177d0                image_multi_count
 .text.image_multi_getimg
                0x040177ec       0x7c common/built-in.o
                0x040177ec                image_multi_getimg
 .text.getenv_bootm_low
                0x04017868       0x34 common/built-in.o
                0x04017868                getenv_bootm_low
 .text.getenv_bootm_size
                0x0401789c       0x68 common/built-in.o
                0x0401789c                getenv_bootm_size
 .text.getenv_bootm_mapsize
                0x04017904       0x30 common/built-in.o
                0x04017904                getenv_bootm_mapsize
 .text.memmove_wd
                0x04017934        0xc common/built-in.o
                0x04017934                memmove_wd
 .text.genimg_print_size
                0x04017940       0x30 common/built-in.o
                0x04017940                genimg_print_size
 .text.get_table_entry
                0x04017970       0x24 common/built-in.o
                0x04017970                get_table_entry
 .text.get_table_entry_name
                0x04017994       0x20 common/built-in.o
                0x04017994                get_table_entry_name
 .text.genimg_get_os_name
                0x040179b4       0x18 common/built-in.o
                0x040179b4                genimg_get_os_name
 .text.genimg_get_arch_name
                0x040179cc       0x18 common/built-in.o
                0x040179cc                genimg_get_arch_name
 .text.genimg_get_type_name
                0x040179e4       0x18 common/built-in.o
                0x040179e4                genimg_get_type_name
 .text.genimg_get_comp_name
                0x040179fc       0x18 common/built-in.o
                0x040179fc                genimg_get_comp_name
 .text.image_print_contents
                0x04017a14      0x1a4 common/built-in.o
                0x04017a14                image_print_contents
 .text.get_table_entry_id
                0x04017bb8       0x4c common/built-in.o
                0x04017bb8                get_table_entry_id
 .text.genimg_get_os_id
                0x04017c04       0x18 common/built-in.o
                0x04017c04                genimg_get_os_id
 .text.genimg_get_arch_id
                0x04017c1c       0x18 common/built-in.o
                0x04017c1c                genimg_get_arch_id
 .text.genimg_get_type_id
                0x04017c34       0x18 common/built-in.o
                0x04017c34                genimg_get_type_id
 .text.genimg_get_comp_id
                0x04017c4c       0x18 common/built-in.o
                0x04017c4c                genimg_get_comp_id
 .text.genimg_get_kernel_addr_fit
                0x04017c64       0x70 common/built-in.o
                0x04017c64                genimg_get_kernel_addr_fit
 .text.genimg_get_format
                0x04017cd4       0x34 common/built-in.o
                0x04017cd4                genimg_get_format
 .text.genimg_get_image
                0x04017d08        0x4 common/built-in.o
                0x04017d08                genimg_get_image
 .text.genimg_has_config
                0x04017d0c       0x10 common/built-in.o
                0x04017d0c                genimg_has_config
 .text.boot_get_ramdisk
                0x04017d1c      0x33c common/built-in.o
                0x04017d1c                boot_get_ramdisk
 .text.boot_ramdisk_high
                0x04018058      0x12c common/built-in.o
                0x04018058                boot_ramdisk_high
 .text.boot_get_setup
                0x04018184        0x4 common/built-in.o
                0x04018184                boot_get_setup
 .text.boot_get_fpga
                0x04018188      0x16c common/built-in.o
                0x04018188                boot_get_fpga
 .text.boot_get_loadable
                0x040182f4      0x17c common/built-in.o
                0x040182f4                boot_get_loadable
 .text.image_setup_linux
                0x04018470       0x8c common/built-in.o
                0x04018470                image_setup_linux
 .text.fdt_error
                0x040184fc       0x2c common/built-in.o
 .text.boot_fdt_add_mem_rsv_regions
                0x04018528       0x88 common/built-in.o
                0x04018528                boot_fdt_add_mem_rsv_regions
 .text.boot_relocate_fdt
                0x040185b0      0x194 common/built-in.o
                0x040185b0                boot_relocate_fdt
 .text.boot_get_fdt
                0x04018744      0x3dc common/built-in.o
                0x04018744                boot_get_fdt
 .text.ft_verify_fdt
                0x04018b20        0x8 common/built-in.o
                0x04018b20                ft_verify_fdt
 .text.image_setup_libfdt
                0x04018b28      0x114 common/built-in.o
                0x04018b28                image_setup_libfdt
 .text.fit_image_get_address
                0x04018c3c       0x6c common/built-in.o
 .text.fit_parse_conf
                0x04018ca8       0x64 common/built-in.o
                0x04018ca8                fit_parse_conf
 .text.fit_parse_subimage
                0x04018d0c       0x64 common/built-in.o
                0x04018d0c                fit_parse_subimage
 .text.fit_get_desc
                0x04018d70       0x30 common/built-in.o
                0x04018d70                fit_get_desc
 .text.fit_image_get_node
                0x04018da0       0x30 common/built-in.o
                0x04018da0                fit_image_get_node
 .text.fit_image_get_os
                0x04018dd0       0x3c common/built-in.o
                0x04018dd0                fit_image_get_os
 .text.fit_image_get_arch
                0x04018e0c       0x3c common/built-in.o
                0x04018e0c                fit_image_get_arch
 .text.fit_image_get_type
                0x04018e48       0x3c common/built-in.o
                0x04018e48                fit_image_get_type
 .text.fit_image_get_comp
                0x04018e84       0x3c common/built-in.o
                0x04018e84                fit_image_get_comp
 .text.fit_image_get_load
                0x04018ec0       0x10 common/built-in.o
                0x04018ec0                fit_image_get_load
 .text.fit_image_get_entry
                0x04018ed0       0x10 common/built-in.o
                0x04018ed0                fit_image_get_entry
 .text.fit_image_get_data
                0x04018ee0       0x40 common/built-in.o
                0x04018ee0                fit_image_get_data
 .text.fit_image_hash_get_algo
                0x04018f20       0x30 common/built-in.o
                0x04018f20                fit_image_hash_get_algo
 .text.fit_image_hash_get_value
                0x04018f50       0x40 common/built-in.o
                0x04018f50                fit_image_hash_get_value
 .text.fit_image_print_data
                0x04018f90      0x140 common/built-in.o
 .text.fit_image_print
                0x040190d0      0x350 common/built-in.o
                0x040190d0                fit_image_print
 .text.fit_get_end
                0x04019420       0x10 common/built-in.o
                0x04019420                fit_get_end
 .text.calculate_hash
                0x04019430       0xfc common/built-in.o
                0x04019430                calculate_hash
 .text.fit_image_verify
                0x0401952c      0x2c0 common/built-in.o
                0x0401952c                fit_image_verify
 .text.fit_all_image_verify
                0x040197ec       0xe0 common/built-in.o
                0x040197ec                fit_all_image_verify
 .text.fit_image_check_os
                0x040198cc       0x30 common/built-in.o
                0x040198cc                fit_image_check_os
 .text.fit_image_check_arch
                0x040198fc       0x44 common/built-in.o
                0x040198fc                fit_image_check_arch
 .text.fit_image_check_type
                0x04019940       0x30 common/built-in.o
                0x04019940                fit_image_check_type
 .text.fit_image_check_comp
                0x04019970       0x30 common/built-in.o
                0x04019970                fit_image_check_comp
 .text.fit_check_format
                0x040199a0       0x40 common/built-in.o
                0x040199a0                fit_check_format
 .text.fit_conf_get_node
                0x040199e0       0x68 common/built-in.o
                0x040199e0                fit_conf_get_node
 .text.fit_conf_get_prop_node
                0x04019a48       0x2c common/built-in.o
                0x04019a48                fit_conf_get_prop_node
 .text.fit_conf_print
                0x04019a74      0x194 common/built-in.o
                0x04019a74                fit_conf_print
 .text.fit_print_contents
                0x04019c08      0x1dc common/built-in.o
                0x04019c08                fit_print_contents
 .text.fit_get_node_from_config
                0x04019de4       0x44 common/built-in.o
                0x04019de4                fit_get_node_from_config
 .text.fit_image_load
                0x04019e28      0x5c8 common/built-in.o
                0x04019e28                fit_image_load
 .text.boot_get_setup_fit
                0x0401a3f0       0x6c common/built-in.o
                0x0401a3f0                boot_get_setup_fit
 .text.rsa_sign
                0x0401a45c        0x8 common/built-in.o
 .text.rsa_add_verify_data
                0x0401a464        0x8 common/built-in.o
 .text.image_get_checksum_algo
                0x0401a46c       0x74 common/built-in.o
                0x0401a46c                image_get_checksum_algo
 .text.image_get_crypto_algo
                0x0401a4e0       0x60 common/built-in.o
                0x0401a4e0                image_get_crypto_algo
 .text.fit_image_setup_verify
                0x0401a540       0xd8 common/built-in.o
 .text.fit_region_make_list
                0x0401a618       0x68 common/built-in.o
                0x0401a618                fit_region_make_list
 .text.fit_image_check_sig
                0x0401a680       0xb4 common/built-in.o
                0x0401a680                fit_image_check_sig
 .text.fit_image_verify_required_sigs
                0x0401a734      0x210 common/built-in.o
                0x0401a734                fit_image_verify_required_sigs
 .text.fit_config_check_sig
                0x0401a944      0x27c common/built-in.o
                0x0401a944                fit_config_check_sig
 .text.fit_config_verify_required_sigs
                0x0401abc0      0x1c8 common/built-in.o
                0x0401abc0                fit_config_verify_required_sigs
 .text.fit_config_verify
                0x0401ad88        0x8 common/built-in.o
                0x0401ad88                fit_config_verify
 .text.get_effective_memsize
                0x0401ad90        0x8 common/built-in.o
                0x0401ad90                get_effective_memsize
 .text.stdio_serial_tstc
                0x0401ad98        0x4 common/built-in.o
 .text.stdio_serial_getc
                0x0401ad9c        0x4 common/built-in.o
 .text.stdio_serial_puts
                0x0401ada0        0x8 common/built-in.o
 .text.stdio_serial_putc
                0x0401ada8        0x8 common/built-in.o
 .text.stdio_get_list
                0x0401adb0        0xc common/built-in.o
                0x0401adb0                stdio_get_list
 .text.stdio_get_by_name
                0x0401adbc       0x5c common/built-in.o
                0x0401adbc                stdio_get_by_name
 .text.stdio_clone
                0x0401ae18       0x38 common/built-in.o
                0x0401ae18                stdio_clone
 .text.stdio_register_dev
                0x0401ae50       0x50 common/built-in.o
                0x0401ae50                stdio_register_dev
 .text.stdio_register
                0x0401aea0        0x8 common/built-in.o
                0x0401aea0                stdio_register
 .text.stdio_init_tables
                0x0401aea8       0x1c common/built-in.o
                0x0401aea8                stdio_init_tables
 .text.stdio_add_devices
                0x0401aec4       0x7c common/built-in.o
                0x0401aec4                stdio_add_devices
 .text.run_command
                0x0401af40       0x10 common/built-in.o
                0x0401af40                run_command
 .text.run_command_list
                0x0401af50       0x7c common/built-in.o
                0x0401af50                run_command_list
 .text.do_run   0x0401afcc       0x78 common/built-in.o
                0x0401afcc                do_run
 .text.cli_process_fdt
                0x0401b044       0x40 common/built-in.o
                0x0401b044                cli_process_fdt
 .text.cli_secure_boot_cmd
                0x0401b084       0x78 common/built-in.o
                0x0401b084                cli_secure_boot_cmd
 .text.cli_loop
                0x0401b0fc        0xc common/built-in.o
                0x0401b0fc                cli_loop
 .text.cli_init
                0x0401b108        0x4 common/built-in.o
                0x0401b108                cli_init
 .text.delete_char.part.0
                0x0401b10c       0xd0 common/built-in.o
 .text.cread_add_char
                0x0401b1dc       0xe8 common/built-in.o
 .text.cli_readline_into_buffer
                0x0401b2c4      0xa64 common/built-in.o
                0x0401b2c4                cli_readline_into_buffer
 .text.cli_readline
                0x0401bd28       0x14 common/built-in.o
                0x0401bd28                cli_readline
 .text.run_usb_dnl_gadget
                0x0401bd3c      0x148 common/built-in.o
                0x0401bd3c                run_usb_dnl_gadget
 .text.find_cmd_tbl
                0x0401be84       0xa4 common/built-in.o
                0x0401be84                find_cmd_tbl
 .text.find_cmd
                0x0401bf28       0x28 common/built-in.o
                0x0401bf28                find_cmd
 .text.cmd_usage
                0x0401bf50       0x5c common/built-in.o
                0x0401bf50                cmd_usage
 .text._do_help
                0x0401bfac      0x178 common/built-in.o
                0x0401bfac                _do_help
 .text.var_complete
                0x0401c124       0x7c common/built-in.o
                0x0401c124                var_complete
 .text.cmd_auto_complete
                0x0401c1a0      0x4b4 common/built-in.o
                0x0401c1a0                cmd_auto_complete
 .text.cmd_get_data_size
                0x0401c654       0x5c common/built-in.o
                0x0401c654                cmd_get_data_size
 .text.cmd_process
                0x0401c6b0       0xf4 common/built-in.o
                0x0401c6b0                cmd_process
 .text.cmd_process_error
                0x0401c7a4       0x34 common/built-in.o
                0x0401c7a4                cmd_process_error
 .text.hex1_bin
                0x0401c7d8       0x40 common/built-in.o
 .text.hex2_bin
                0x0401c818       0x38 common/built-in.o
 .text.srec_decode
                0x0401c850      0x254 common/built-in.o
                0x0401c850                srec_decode
 .text.CYGACC_COMM_IF_GETC_TIMEOUT.isra.0
                0x0401caa4       0x4c common/built-in.o
 .text.xyzModem_flush
                0x0401caf0       0x1c common/built-in.o
 .text.xyzModem_get_hdr
                0x0401cb0c      0x234 common/built-in.o
 .text.xyzModem_stream_open
                0x0401cd40      0x23c common/built-in.o
                0x0401cd40                xyzModem_stream_open
 .text.xyzModem_stream_read
                0x0401cf7c      0x258 common/built-in.o
                0x0401cf7c                xyzModem_stream_read
 .text.xyzModem_stream_close
                0x0401d1d4       0x54 common/built-in.o
                0x0401d1d4                xyzModem_stream_close
 .text.xyzModem_stream_terminate
                0x0401d228       0x94 common/built-in.o
                0x0401d228                xyzModem_stream_terminate
 .text.xyzModem_error
                0x0401d2bc       0x20 common/built-in.o
                0x0401d2bc                xyzModem_error
 .text.blk_get_dev
                0x0401d2dc       0x30 disk/built-in.o
                0x0401d2dc                blk_get_dev
 .text.dev_print
                0x0401d30c      0x204 disk/built-in.o
                0x0401d30c                dev_print
 .text.part_init
                0x0401d510       0x54 disk/built-in.o
                0x0401d510                part_init
 .text.part_print
                0x0401d564      0x134 disk/built-in.o
                0x0401d564                part_print
 .text.part_get_info
                0x0401d698       0x70 disk/built-in.o
                0x0401d698                part_get_info
 .text.blk_get_device_by_str
                0x0401d708      0x150 disk/built-in.o
                0x0401d708                blk_get_device_by_str
 .text.blk_get_device_part_str
                0x0401d858      0x3fc disk/built-in.o
                0x0401d858                blk_get_device_part_str
 .text.part_set_generic_name
                0x0401dc54       0x4c disk/built-in.o
                0x0401dc54                part_set_generic_name
 .text.test_block_type
                0x0401dca0       0x84 disk/built-in.o
 .text.print_partition_extended
                0x0401dd24      0x26c disk/built-in.o
 .text.part_print_dos
                0x0401df90       0x34 disk/built-in.o
                0x0401df90                part_print_dos
 .text.part_test_dos
                0x0401dfc4       0x5c disk/built-in.o
 .text.part_get_info_extended.constprop.2
                0x0401e020      0x264 disk/built-in.o
 .text.part_get_info_dos
                0x0401e284       0x20 disk/built-in.o
                0x0401e284                part_get_info_dos
 .text.device_bind_common.isra.5
                0x0401e2a4      0x348 drivers/built-in.o
 .text.alloc_priv
                0x0401e5ec       0x4c drivers/built-in.o
 .text.device_bind_with_driver_data
                0x0401e638       0x28 drivers/built-in.o
                0x0401e638                device_bind_with_driver_data
 .text.device_bind
                0x0401e660       0x28 drivers/built-in.o
                0x0401e660                device_bind
 .text.device_bind_by_name
                0x0401e688       0x68 drivers/built-in.o
                0x0401e688                device_bind_by_name
 .text.device_probe
                0x0401e6f0      0x234 drivers/built-in.o
                0x0401e6f0                device_probe
 .text.dev_get_platdata
                0x0401e924       0x34 drivers/built-in.o
                0x0401e924                dev_get_platdata
 .text.dev_get_parent_platdata
                0x0401e958       0x34 drivers/built-in.o
                0x0401e958                dev_get_parent_platdata
 .text.dev_get_uclass_platdata
                0x0401e98c       0x34 drivers/built-in.o
                0x0401e98c                dev_get_uclass_platdata
 .text.dev_get_priv
                0x0401e9c0       0x34 drivers/built-in.o
                0x0401e9c0                dev_get_priv
 .text.dev_get_uclass_priv
                0x0401e9f4       0x34 drivers/built-in.o
                0x0401e9f4                dev_get_uclass_priv
 .text.dev_get_parent_priv
                0x0401ea28       0x34 drivers/built-in.o
                0x0401ea28                dev_get_parent_priv
 .text.device_find_first_child
                0x0401ea5c       0x1c drivers/built-in.o
                0x0401ea5c                device_find_first_child
 .text.device_find_next_child
                0x0401ea78       0x28 drivers/built-in.o
                0x0401ea78                device_find_next_child
 .text.dev_get_parent
                0x0401eaa0        0x8 drivers/built-in.o
                0x0401eaa0                dev_get_parent
 .text.device_get_uclass_id
                0x0401eaa8       0x10 drivers/built-in.o
                0x0401eaa8                device_get_uclass_id
 .text.dev_get_addr_index
                0x0401eab8       0xac drivers/built-in.o
                0x0401eab8                dev_get_addr_index
 .text.dev_get_addr
                0x0401eb64        0x8 drivers/built-in.o
                0x0401eb64                dev_get_addr
 .text.dev_get_addr_ptr
                0x0401eb6c        0x8 drivers/built-in.o
                0x0401eb6c                dev_get_addr_ptr
 .text.device_has_active_children
                0x0401eb74       0x3c drivers/built-in.o
                0x0401eb74                device_has_active_children
 .text.device_is_last_sibling
                0x0401ebb0       0x24 drivers/built-in.o
                0x0401ebb0                device_is_last_sibling
 .text.device_set_name_alloced
                0x0401ebd4       0x10 drivers/built-in.o
                0x0401ebd4                device_set_name_alloced
 .text.lists_driver_lookup_name
                0x0401ebe4       0x4c drivers/built-in.o
                0x0401ebe4                lists_driver_lookup_name
 .text.lists_uclass_lookup
                0x0401ec30       0x3c drivers/built-in.o
                0x0401ec30                lists_uclass_lookup
 .text.lists_bind_drivers
                0x0401ec6c       0x88 drivers/built-in.o
                0x0401ec6c                lists_bind_drivers
 .text.device_bind_driver_to_node
                0x0401ecf4       0x48 drivers/built-in.o
                0x0401ecf4                device_bind_driver_to_node
 .text.device_bind_driver
                0x0401ed3c       0x18 drivers/built-in.o
                0x0401ed3c                device_bind_driver
 .text.lists_bind_fdt
                0x0401ed54      0x190 drivers/built-in.o
                0x0401ed54                lists_bind_fdt
 .text.dm_root  0x0401eee4       0x28 drivers/built-in.o
                0x0401eee4                dm_root
 .text.dm_get_translation_offset
                0x0401ef0c       0x14 drivers/built-in.o
                0x0401ef0c                dm_get_translation_offset
 .text.dm_init  0x0401ef20       0x64 drivers/built-in.o
                0x0401ef20                dm_init
 .text.dm_scan_platdata
                0x0401ef84       0x2c drivers/built-in.o
                0x0401ef84                dm_scan_platdata
 .text.dm_scan_fdt_node
                0x0401efb0       0xc8 drivers/built-in.o
                0x0401efb0                dm_scan_fdt_node
 .text.dm_scan_fdt_dev
                0x0401f078       0x28 drivers/built-in.o
                0x0401f078                dm_scan_fdt_dev
 .text.dm_scan_fdt
                0x0401f0a0       0x18 drivers/built-in.o
                0x0401f0a0                dm_scan_fdt
 .text.dm_scan_other
                0x0401f0b8        0x8 drivers/built-in.o
                0x0401f0b8                dm_scan_other
 .text.dm_init_and_scan
                0x0401f0c0       0x44 drivers/built-in.o
                0x0401f0c0                dm_init_and_scan
 .text.uclass_find
                0x0401f104       0x4c drivers/built-in.o
                0x0401f104                uclass_find
 .text.uclass_get
                0x0401f150      0x124 drivers/built-in.o
                0x0401f150                uclass_get
 .text.uclass_find_device
                0x0401f274       0x74 drivers/built-in.o
                0x0401f274                uclass_find_device
 .text.uclass_find_first_device
                0x0401f2e8       0x3c drivers/built-in.o
                0x0401f2e8                uclass_find_first_device
 .text.uclass_find_next_device
                0x0401f324       0x2c drivers/built-in.o
                0x0401f324                uclass_find_next_device
 .text.uclass_find_device_by_seq
                0x0401f350       0x7c drivers/built-in.o
                0x0401f350                uclass_find_device_by_seq
 .text.uclass_find_device_by_of_offset
                0x0401f3cc       0x6c drivers/built-in.o
                0x0401f3cc                uclass_find_device_by_of_offset
 .text.uclass_get_device_tail
                0x0401f438       0x2c drivers/built-in.o
                0x0401f438                uclass_get_device_tail
 .text.uclass_get_device
                0x0401f464       0x30 drivers/built-in.o
                0x0401f464                uclass_get_device
 .text.uclass_get_device_by_seq
                0x0401f494       0x58 drivers/built-in.o
                0x0401f494                uclass_get_device_by_seq
 .text.uclass_get_device_by_of_offset
                0x0401f4ec       0x30 drivers/built-in.o
                0x0401f4ec                uclass_get_device_by_of_offset
 .text.uclass_first_device
                0x0401f51c       0x38 drivers/built-in.o
                0x0401f51c                uclass_first_device
 .text.uclass_next_device
                0x0401f554       0x40 drivers/built-in.o
                0x0401f554                uclass_next_device
 .text.uclass_bind_device
                0x0401f594       0x7c drivers/built-in.o
                0x0401f594                uclass_bind_device
 .text.uclass_unbind_device
                0x0401f610       0x50 drivers/built-in.o
                0x0401f610                uclass_unbind_device
 .text.uclass_resolve_seq
                0x0401f660       0xb0 drivers/built-in.o
                0x0401f660                uclass_resolve_seq
 .text.uclass_pre_probe_device
                0x0401f710       0x64 drivers/built-in.o
                0x0401f710                uclass_pre_probe_device
 .text.uclass_post_probe_device
                0x0401f774       0x20 drivers/built-in.o
                0x0401f774                uclass_post_probe_device
 .text.uclass_pre_remove_device
                0x0401f794       0x20 drivers/built-in.o
                0x0401f794                uclass_pre_remove_device
 .text.dm_warn  0x0401f7b4       0x28 drivers/built-in.o
                0x0401f7b4                dm_warn
 .text.device_unbind
                0x0401f7dc      0x150 drivers/built-in.o
                0x0401f7dc                device_unbind
 .text.device_free
                0x0401f92c       0x90 drivers/built-in.o
                0x0401f92c                device_free
 .text.device_remove
                0x0401f9bc      0x138 drivers/built-in.o
                0x0401f9bc                device_remove
 .text.simple_bus_post_bind
                0x0401faf4       0x64 drivers/built-in.o
 .text.show_devices
                0x0401fb58       0xfc drivers/built-in.o
 .text.dm_dump_all
                0x0401fc54       0x3c drivers/built-in.o
                0x0401fc54                dm_dump_all
 .text.dm_dump_uclass
                0x0401fc90       0xdc drivers/built-in.o
                0x0401fc90                dm_dump_uclass
 .text.blk_get_devnum_by_typename
                0x0401fd6c       0xec drivers/built-in.o
                0x0401fd6c                blk_get_devnum_by_typename
 .text.blk_select_hwpart
                0x0401fe58       0x30 drivers/built-in.o
                0x0401fe58                blk_select_hwpart
 .text.blk_dselect_hwpart
                0x0401fe88        0x8 drivers/built-in.o
                0x0401fe88                blk_dselect_hwpart
 .text.blk_first_device
                0x0401fe90       0x58 drivers/built-in.o
                0x0401fe90                blk_first_device
 .text.blk_next_device
                0x0401fee8       0x50 drivers/built-in.o
                0x0401fee8                blk_next_device
 .text.blk_get_device
                0x0401ff38       0x88 drivers/built-in.o
                0x0401ff38                blk_get_device
 .text.blk_get_devnum_by_type
                0x0401ffc0       0x28 drivers/built-in.o
                0x0401ffc0                blk_get_devnum_by_type
 .text.blk_select_hwpart_devnum
                0x0401ffe8       0x2c drivers/built-in.o
                0x0401ffe8                blk_select_hwpart_devnum
 .text.blk_dread
                0x04020014       0x30 drivers/built-in.o
                0x04020014                blk_dread
 .text.blk_dwrite
                0x04020044       0x30 drivers/built-in.o
                0x04020044                blk_dwrite
 .text.blk_derase
                0x04020074       0x24 drivers/built-in.o
                0x04020074                blk_derase
 .text.blk_prepare_device
                0x04020098       0x14 drivers/built-in.o
                0x04020098                blk_prepare_device
 .text.blk_find_max_devnum
                0x040200ac       0x78 drivers/built-in.o
                0x040200ac                blk_find_max_devnum
 .text.blk_create_device
                0x04020124       0xac drivers/built-in.o
                0x04020124                blk_create_device
 .text.blk_create_devicef
                0x040201d0       0xa0 drivers/built-in.o
                0x040201d0                blk_create_devicef
 .text.blk_unbind_all
                0x04020270       0x94 drivers/built-in.o
                0x04020270                blk_unbind_all
 .text.rsa_mod_exp
                0x04020304       0x2c drivers/built-in.o
                0x04020304                rsa_mod_exp
 .text.mod_exp_sw
                0x04020330       0x14 drivers/built-in.o
                0x04020330                mod_exp_sw
 .text.fpga_no_sup
                0x04020344       0x4c drivers/built-in.o
 .text.fpga_get_desc
                0x04020390       0x34 drivers/built-in.o
                0x04020390                fpga_get_desc
 .text.fpga_dev_info
                0x040203c4       0x94 drivers/built-in.o
 .text.fpga_validate
                0x04020458       0x54 drivers/built-in.o
                0x04020458                fpga_validate
 .text.fpga_init
                0x040204ac       0x20 drivers/built-in.o
                0x040204ac                fpga_init
 .text.fpga_count
                0x040204cc       0x10 drivers/built-in.o
                0x040204cc                fpga_count
 .text.fpga_add
                0x040204dc       0xa0 drivers/built-in.o
                0x040204dc                fpga_add
 .text.fpga_loadbitstream
                0x0402057c      0x200 drivers/built-in.o
                0x04020594                fpga_loadbitstream
 .text.fpga_fsload
                0x0402077c       0x60 drivers/built-in.o
                0x0402077c                fpga_fsload
 .text.fpga_load
                0x040207dc       0x94 drivers/built-in.o
                0x040207dc                fpga_load
 .text.fpga_dump
                0x04020870       0x8c drivers/built-in.o
                0x04020870                fpga_dump
 .text.fpga_info
                0x040208fc       0x74 drivers/built-in.o
                0x040208fc                fpga_info
 .text.zynq_dma_transfer.constprop.4
                0x04020970       0xb4 drivers/built-in.o
 .text.load_word
                0x04020a24       0x48 drivers/built-in.o
 .text.zynq_align_dma_buffer
                0x04020a6c       0xc4 drivers/built-in.o
 .text.zynq_validate_bitstream.isra.3
                0x04020b30      0x28c drivers/built-in.o
 .text.zynq_loadfs
                0x04020dbc      0x210 drivers/built-in.o
 .text.zynq_load
                0x04020fcc       0xdc drivers/built-in.o
 .text.xilinx_validate
                0x040210a8       0x7c drivers/built-in.o
 .text.xilinx_load
                0x04021124       0x84 drivers/built-in.o
                0x04021124                xilinx_load
 .text.xilinx_loadfs
                0x040211a8       0x7c drivers/built-in.o
                0x040211a8                xilinx_loadfs
 .text.xilinx_dump
                0x04021224       0x78 drivers/built-in.o
                0x04021224                xilinx_dump
 .text.xilinx_info
                0x0402129c      0x1e8 drivers/built-in.o
                0x0402129c                xilinx_info
 .text.dfu_write_buffer_drain
                0x04021484       0xa8 drivers/built-in.o
 .text.dfu_free_buf
                0x0402152c       0x20 drivers/built-in.o
                0x0402152c                dfu_free_buf
 .text.dfu_get_buf_size
                0x0402154c       0x10 drivers/built-in.o
                0x0402154c                dfu_get_buf_size
 .text.dfu_get_buf
                0x0402155c       0xb8 drivers/built-in.o
                0x0402155c                dfu_get_buf
 .text.dfu_write_transaction_cleanup
                0x04021614       0x44 drivers/built-in.o
                0x04021614                dfu_write_transaction_cleanup
 .text.dfu_flush
                0x04021658       0x64 drivers/built-in.o
                0x04021658                dfu_flush
 .text.dfu_write
                0x040216bc      0x194 drivers/built-in.o
                0x040216bc                dfu_write
 .text.dfu_read
                0x04021850      0x274 drivers/built-in.o
                0x04021850                dfu_read
 .text.dfu_free_entities
                0x04021ac4       0x9c drivers/built-in.o
                0x04021ac4                dfu_free_entities
 .text.dfu_config_entities
                0x04021b60      0x278 drivers/built-in.o
                0x04021b60                dfu_config_entities
 .text.dfu_init_env_entities
                0x04021dd8       0x90 drivers/built-in.o
                0x04021dd8                dfu_init_env_entities
 .text.dfu_get_dev_type
                0x04021e68       0x3c drivers/built-in.o
                0x04021e68                dfu_get_dev_type
 .text.dfu_get_layout
                0x04021ea4       0x3c drivers/built-in.o
                0x04021ea4                dfu_get_layout
 .text.dfu_show_entities
                0x04021ee0       0x74 drivers/built-in.o
                0x04021ee0                dfu_show_entities
 .text.dfu_get_alt_number
                0x04021f54       0x10 drivers/built-in.o
                0x04021f54                dfu_get_alt_number
 .text.dfu_get_entity
                0x04021f64       0x40 drivers/built-in.o
                0x04021f64                dfu_get_entity
 .text.dfu_get_alt
                0x04021fa4       0xa4 drivers/built-in.o
                0x04021fa4                dfu_get_alt
 .text.mmc_block_op
                0x04022048      0x20c drivers/built-in.o
 .text.mmc_file_op
                0x04022254      0x19c drivers/built-in.o
 .text.dfu_free_entity_mmc
                0x040223f0       0x28 drivers/built-in.o
                0x040223f0                dfu_free_entity_mmc
 .text.dfu_write_medium_mmc
                0x04022418       0xb8 drivers/built-in.o
                0x04022418                dfu_write_medium_mmc
 .text.dfu_flush_medium_mmc
                0x040224d0       0x48 drivers/built-in.o
                0x040224d0                dfu_flush_medium_mmc
 .text.dfu_get_medium_size_mmc
                0x04022518       0x90 drivers/built-in.o
                0x04022518                dfu_get_medium_size_mmc
 .text.dfu_read_medium_mmc
                0x040225a8       0xe4 drivers/built-in.o
                0x040225a8                dfu_read_medium_mmc
 .text.dfu_fill_entity_mmc
                0x0402268c      0x318 drivers/built-in.o
                0x0402268c                dfu_fill_entity_mmc
 .text.dfu_get_medium_size_ram
                0x040229a4        0x8 drivers/built-in.o
                0x040229a4                dfu_get_medium_size_ram
 .text.dfu_write_medium_ram
                0x040229ac       0x9c drivers/built-in.o
 .text.dfu_read_medium_ram
                0x04022a48       0x9c drivers/built-in.o
 .text.dfu_fill_entity_ram
                0x04022ae4      0x118 drivers/built-in.o
                0x04022ae4                dfu_fill_entity_ram
 .text.gpio_to_device
                0x04022bfc       0x80 drivers/gpio/built-in.o
 .text.check_reserved
                0x04022c7c       0x74 drivers/gpio/built-in.o
 .text.gpio_renumber
                0x04022cf0       0x84 drivers/gpio/built-in.o
 .text.gpio_pre_remove
                0x04022d74       0x50 drivers/gpio/built-in.o
 .text.gpio_post_probe
                0x04022dc4       0x38 drivers/gpio/built-in.o
 .text.dm_gpio_lookup_name
                0x04022dfc      0x104 drivers/gpio/built-in.o
                0x04022dfc                dm_gpio_lookup_name
 .text.gpio_lookup_name
                0x04022f00       0x70 drivers/gpio/built-in.o
                0x04022f00                gpio_lookup_name
 .text.dm_gpio_request
                0x04022f70       0xa0 drivers/gpio/built-in.o
                0x04022f70                dm_gpio_request
 .text.gpio_request
                0x04023010       0x2c drivers/gpio/built-in.o
                0x04023010                gpio_request
 .text._dm_gpio_free
                0x0402303c       0x74 drivers/gpio/built-in.o
                0x0402303c                _dm_gpio_free
 .text.gpio_free
                0x040230b0       0x28 drivers/gpio/built-in.o
                0x040230b0                gpio_free
 .text.gpio_direction_input
                0x040230d8       0x4c drivers/gpio/built-in.o
                0x040230d8                gpio_direction_input
 .text.gpio_direction_output
                0x04023124       0x54 drivers/gpio/built-in.o
                0x04023124                gpio_direction_output
 .text.dm_gpio_get_value
                0x04023178       0x48 drivers/gpio/built-in.o
                0x04023178                dm_gpio_get_value
 .text.dm_gpio_set_value
                0x040231c0       0x54 drivers/gpio/built-in.o
                0x040231c0                dm_gpio_set_value
 .text.gpio_get_value
                0x04023214       0x24 drivers/gpio/built-in.o
                0x04023214                gpio_get_value
 .text.gpio_set_value
                0x04023238       0x2c drivers/gpio/built-in.o
                0x04023238                gpio_set_value
 .text.gpio_get_bank_info
                0x04023264       0x1c drivers/gpio/built-in.o
                0x04023264                gpio_get_bank_info
 .text.get_function
                0x04023280       0xac drivers/gpio/built-in.o
                0x04023280                get_function
 .text.gpio_get_function
                0x0402332c        0xc drivers/gpio/built-in.o
                0x0402332c                gpio_get_function
 .text.gpio_get_raw_function
                0x04023338        0xc drivers/gpio/built-in.o
                0x04023338                gpio_get_raw_function
 .text.gpio_get_status
                0x04023344      0x120 drivers/gpio/built-in.o
                0x04023344                gpio_get_status
 .text.check_gpio
                0x04023464       0x40 drivers/gpio/built-in.o
 .text.zynq_gpio_get_function
                0x040234a4       0xa8 drivers/gpio/built-in.o
 .text.zynq_gpio_set_value
                0x0402354c       0xdc drivers/gpio/built-in.o
 .text.zynq_gpio_get_value
                0x04023628       0xa0 drivers/gpio/built-in.o
 .text.zynq_gpio_direction_input
                0x040236c8       0xcc drivers/gpio/built-in.o
 .text.zynq_gpio_direction_output
                0x04023794       0xe8 drivers/gpio/built-in.o
 .text.zynq_gpio_ofdata_to_platdata
                0x0402387c       0x24 drivers/gpio/built-in.o
 .text.zynq_gpio_probe
                0x040238a0       0x8c drivers/gpio/built-in.o
 .text.i2c_get_adapter
                0x0402392c       0x64 drivers/i2c/built-in.o
                0x0402392c                i2c_get_adapter
 .text.i2c_init_bus
                0x04023990       0x90 drivers/i2c/built-in.o
 .text.i2c_get_bus_num
                0x04023a20        0x8 drivers/i2c/built-in.o
                0x04023a20                i2c_get_bus_num
 .text.i2c_set_bus_num
                0x04023a28       0xbc drivers/i2c/built-in.o
                0x04023a28                i2c_set_bus_num
 .text.i2c_init_all
                0x04023ae4       0x14 drivers/i2c/built-in.o
                0x04023ae4                i2c_init_all
 .text.i2c_probe
                0x04023af8       0x2c drivers/i2c/built-in.o
                0x04023af8                i2c_probe
 .text.i2c_read
                0x04023b24       0x4c drivers/i2c/built-in.o
                0x04023b24                i2c_read
 .text.i2c_write
                0x04023b70       0x4c drivers/i2c/built-in.o
                0x04023b70                i2c_write
 .text.i2c_set_bus_speed
                0x04023bbc       0x64 drivers/i2c/built-in.o
                0x04023bbc                i2c_set_bus_speed
 .text.i2c_get_bus_speed
                0x04023c20       0x14 drivers/i2c/built-in.o
                0x04023c20                i2c_get_bus_speed
 .text.i2c_init
                0x04023c34       0x14 drivers/i2c/built-in.o
                0x04023c34                i2c_init
 .text.zynq_i2c_init
                0x04023c48       0x38 drivers/i2c/built-in.o
 .text.zynq_i2c_set_bus_speed
                0x04023c80       0x18 drivers/i2c/built-in.o
 .text.zynq_i2c_wait
                0x04023c98       0x3c drivers/i2c/built-in.o
 .text.zynq_i2c_write
                0x04023cd4      0x118 drivers/i2c/built-in.o
 .text.zynq_i2c_read
                0x04023dec      0x150 drivers/i2c/built-in.o
 .text.zynq_i2c_probe
                0x04023f3c       0x74 drivers/i2c/built-in.o
 .text.dm_mmc_set_ios
                0x04023fb0       0x20 drivers/mmc/built-in.o
                0x04023fb0                dm_mmc_set_ios
 .text.mmc_set_ios
                0x04023fd0        0x8 drivers/mmc/built-in.o
                0x04023fd0                mmc_set_ios
 .text.dm_mmc_get_wp
                0x04023fd8       0x20 drivers/mmc/built-in.o
                0x04023fd8                dm_mmc_get_wp
 .text.mmc_getwp
                0x04023ff8        0x8 drivers/mmc/built-in.o
                0x04023ff8                mmc_getwp
 .text.dm_mmc_get_cd
                0x04024000       0x20 drivers/mmc/built-in.o
                0x04024000                dm_mmc_get_cd
 .text.mmc_getcd
                0x04024020        0x8 drivers/mmc/built-in.o
                0x04024020                mmc_getcd
 .text.dm_mmc_set_voltage
                0x04024028       0x20 drivers/mmc/built-in.o
                0x04024028                dm_mmc_set_voltage
 .text.mmc_set_voltage
                0x04024048        0x8 drivers/mmc/built-in.o
                0x04024048                mmc_set_voltage
 .text.dm_mmc_set_uhs
                0x04024050       0x20 drivers/mmc/built-in.o
                0x04024050                dm_mmc_set_uhs
 .text.mmc_switch_uhs
                0x04024070        0x8 drivers/mmc/built-in.o
                0x04024070                mmc_switch_uhs
 .text.mmc_get_mmc_dev
                0x04024078       0x24 drivers/mmc/built-in.o
                0x04024078                mmc_get_mmc_dev
 .text.dm_mmc_send_cmd
                0x0402409c       0x44 drivers/mmc/built-in.o
                0x0402409c                dm_mmc_send_cmd
 .text.mmc_send_cmd
                0x040240e0        0x8 drivers/mmc/built-in.o
                0x040240e0                mmc_send_cmd
 .text.dm_mmc_execute_tuning
                0x040240e8       0x44 drivers/mmc/built-in.o
                0x040240e8                dm_mmc_execute_tuning
 .text.mmc_execute_tuning
                0x0402412c        0x8 drivers/mmc/built-in.o
                0x0402412c                mmc_execute_tuning
 .text.mmc_select_hwpart
                0x04024134       0x58 drivers/mmc/built-in.o
 .text.find_mmc_device
                0x0402418c       0x4c drivers/mmc/built-in.o
                0x0402418c                find_mmc_device
 .text.get_mmc_num
                0x040241d8       0x18 drivers/mmc/built-in.o
                0x040241d8                get_mmc_num
 .text.mmc_get_blk_desc
                0x040241f0       0x28 drivers/mmc/built-in.o
                0x040241f0                mmc_get_blk_desc
 .text.mmc_do_preinit
                0x04024218       0x68 drivers/mmc/built-in.o
                0x04024218                mmc_do_preinit
 .text.print_mmc_devices
                0x04024280       0xe8 drivers/mmc/built-in.o
                0x04024280                print_mmc_devices
 .text.mmc_bind
                0x04024368       0x88 drivers/mmc/built-in.o
                0x04024368                mmc_bind
 .text.mmc_send_ext_csd
                0x040243f0       0x4c drivers/mmc/built-in.o
 .text.mmc_send_op_cond_iter
                0x0402443c       0x78 drivers/mmc/built-in.o
 .text.mmc_go_idle
                0x040244b4       0x4c drivers/mmc/built-in.o
 .text.mmc_set_capacity
                0x04024500       0xb4 drivers/mmc/built-in.o
 .text.mmc_send_status
                0x040245b4       0xd0 drivers/mmc/built-in.o
                0x040245b4                mmc_send_status
 .text.mmc_set_blocklen
                0x04024684       0x40 drivers/mmc/built-in.o
                0x04024684                mmc_set_blocklen
 .text.mmc_bread
                0x040246c4      0x16c drivers/mmc/built-in.o
                0x040246c4                mmc_bread
 .text.mmc_switch
                0x04024830       0x68 drivers/mmc/built-in.o
                0x04024830                mmc_switch
 .text.mmc_change_freq
                0x04024898       0xf4 drivers/mmc/built-in.o
 .text.mmc_hwpart_config
                0x0402498c      0x438 drivers/mmc/built-in.o
                0x0402498c                mmc_hwpart_config
 .text.mmc_set_clock
                0x04024dc4       0x24 drivers/mmc/built-in.o
                0x04024dc4                mmc_set_clock
 .text.mmc_switch_part
                0x04024de8      0x16c drivers/mmc/built-in.o
                0x04024de8                mmc_switch_part
 .text.mmc_startup
                0x04024f54      0xeac drivers/mmc/built-in.o
 .text.board_mmc_power_init
                0x04025e00        0x4 drivers/mmc/built-in.o
                0x04025e00                board_mmc_power_init
 .text.mmc_start_init
                0x04025e04      0x28c drivers/mmc/built-in.o
                0x04025e04                mmc_start_init
 .text.mmc_init
                0x04026090      0x108 drivers/mmc/built-in.o
                0x04026090                mmc_init
 .text.mmc_set_dsr
                0x04026198        0xc drivers/mmc/built-in.o
                0x04026198                mmc_set_dsr
 .text.mmc_initialize
                0x040261a4       0xc8 drivers/mmc/built-in.o
                0x040261a4                mmc_initialize
 .text.arasan_sdhci_ofdata_to_platdata
                0x0402626c       0xd4 drivers/mmc/built-in.o
 .text.arasan_sdhci_probe
                0x04026340       0xa0 drivers/mmc/built-in.o
 .text.arasan_sdhci_bind
                0x040263e0       0x20 drivers/mmc/built-in.o
 .text.mmc_berase
                0x04026400      0x1d0 drivers/mmc/built-in.o
                0x04026400                mmc_berase
 .text.mmc_bwrite
                0x040265d0      0x1a8 drivers/mmc/built-in.o
                0x040265d0                mmc_bwrite
 .text.sdhci_set_uhs
                0x04026778       0x3c drivers/mmc/built-in.o
 .text.sdhci_set_clock
                0x040267b4      0x1ec drivers/mmc/built-in.o
 .text.sdhci_set_ios
                0x040269a0       0xe0 drivers/mmc/built-in.o
 .text.sdhci_set_voltage
                0x04026a80      0x108 drivers/mmc/built-in.o
 .text.sdhci_reset
                0x04026b88       0x68 drivers/mmc/built-in.o
 .text.sdhci_send_command
                0x04026bf0      0x4dc drivers/mmc/built-in.o
 .text.sdhci_execute_tuning
                0x040270cc      0x17c drivers/mmc/built-in.o
 .text.sdhci_probe
                0x04027248      0x1c8 drivers/mmc/built-in.o
                0x04027248                sdhci_probe
 .text.sdhci_setup_cfg
                0x04027410      0x200 drivers/mmc/built-in.o
                0x04027410                sdhci_setup_cfg
 .text.sdhci_bind
                0x04027610        0x4 drivers/mmc/built-in.o
                0x04027610                sdhci_bind
 .text.mtd_arg_off
                0x04027614       0x68 drivers/mtd/built-in.o
                0x04027614                mtd_arg_off
 .text.mtd_arg_off_size
                0x0402767c      0x11c drivers/mtd/built-in.o
                0x0402767c                mtd_arg_off_size
 .text.spi_flash_post_bind
                0x04027798        0x8 drivers/mtd/spi/built-in.o
 .text.spi_flash_read_dm
                0x040277a0       0x1c drivers/mtd/spi/built-in.o
                0x040277a0                spi_flash_read_dm
 .text.spi_flash_write_dm
                0x040277bc       0x1c drivers/mtd/spi/built-in.o
                0x040277bc                spi_flash_write_dm
 .text.spi_flash_erase_dm
                0x040277d8       0x10 drivers/mtd/spi/built-in.o
                0x040277d8                spi_flash_erase_dm
 .text.spi_flash_free
                0x040277e8        0xc drivers/mtd/spi/built-in.o
                0x040277e8                spi_flash_free
 .text.spi_flash_probe_bus_cs
                0x040277f4       0x8c drivers/mtd/spi/built-in.o
                0x040277f4                spi_flash_probe_bus_cs
 .text.spi_flash_probe
                0x04027880       0x2c drivers/mtd/spi/built-in.o
                0x04027880                spi_flash_probe
 .text.spi_flash_std_erase
                0x040278ac       0x20 drivers/mtd/spi/built-in.o
 .text.spi_flash_std_write
                0x040278cc       0x28 drivers/mtd/spi/built-in.o
 .text.spi_flash_std_read
                0x040278f4       0x28 drivers/mtd/spi/built-in.o
 .text.spi_flash_std_probe
                0x0402791c       0x70 drivers/mtd/spi/built-in.o
 .text.spi_flash_dual
                0x0402798c       0x70 drivers/mtd/spi/built-in.o
 .text.stm_is_locked_sr
                0x040279fc       0x80 drivers/mtd/spi/built-in.o
 .text.spi_flash_read_common
                0x04027a7c       0x5c drivers/mtd/spi/built-in.o
                0x04027a7c                spi_flash_read_common
 .text.read_sr  0x04027ad8       0x2c drivers/mtd/spi/built-in.o
 .text.stm_is_locked
                0x04027b04       0x4c drivers/mtd/spi/built-in.o
                0x04027b04                stm_is_locked
 .text.spi_flash_write_common
                0x04027b50      0x150 drivers/mtd/spi/built-in.o
                0x04027b50                spi_flash_write_common
 .text.write_bar
                0x04027ca0       0x90 drivers/mtd/spi/built-in.o
 .text.spi_flash_cmd_erase_ops
                0x04027d30      0x154 drivers/mtd/spi/built-in.o
                0x04027d30                spi_flash_cmd_erase_ops
 .text.spi_flash_cmd_write_ops
                0x04027e84      0x160 drivers/mtd/spi/built-in.o
                0x04027e84                spi_flash_cmd_write_ops
 .text.write_sr
                0x04027fe4       0x2c drivers/mtd/spi/built-in.o
 .text.stm_lock
                0x04028010      0x170 drivers/mtd/spi/built-in.o
                0x04028010                stm_lock
 .text.stm_unlock
                0x04028180      0x1b8 drivers/mtd/spi/built-in.o
                0x04028180                stm_unlock
 .text.set_quad_mode.isra.7
                0x04028338       0xf4 drivers/mtd/spi/built-in.o
 .text.spi_flash_copy_mmap
                0x0402842c        0x4 drivers/mtd/spi/built-in.o
                0x0402842c                spi_flash_copy_mmap
 .text.spi_flash_cmd_read_ops
                0x04028430      0x27c drivers/mtd/spi/built-in.o
                0x04028430                spi_flash_cmd_read_ops
 .text.spi_flash_cmd_4B_addr_switch
                0x040286ac      0x128 drivers/mtd/spi/built-in.o
                0x040286ac                spi_flash_cmd_4B_addr_switch
 .text.spi_flash_decode_fdt
                0x040287d4       0x4c drivers/mtd/spi/built-in.o
                0x040287d4                spi_flash_decode_fdt
 .text.spi_flash_scan
                0x04028820      0x574 drivers/mtd/spi/built-in.o
                0x04028820                spi_flash_scan
 .text.spi_flash_read_write
                0x04028d94       0x7c drivers/mtd/spi/built-in.o
 .text.spi_flash_cmd_read
                0x04028e10       0x20 drivers/mtd/spi/built-in.o
                0x04028e10                spi_flash_cmd_read
 .text.spi_flash_cmd
                0x04028e30       0x2c drivers/mtd/spi/built-in.o
                0x04028e30                spi_flash_cmd
 .text.spi_flash_cmd_write
                0x04028e5c       0x20 drivers/mtd/spi/built-in.o
                0x04028e5c                spi_flash_cmd_write
 .text.zynq_gem_setup_mac
                0x04028e7c       0x98 drivers/net/built-in.o
 .text.zynq_gem_halt
                0x04028f14       0x1c drivers/net/built-in.o
 .text.zynq_gem_free_pkt
                0x04028f30       0x74 drivers/net/built-in.o
 .text.zynq_gem_send
                0x04028fa4      0x118 drivers/net/built-in.o
 .text.zynq_gem_init
                0x040290bc      0x21c drivers/net/built-in.o
 .text.zynq_gem_ofdata_to_platdata
                0x040292d8      0x124 drivers/net/built-in.o
 .text.zynq_gem_remove
                0x040293fc       0x2c drivers/net/built-in.o
 .text.phy_setup_op.isra.1
                0x04029428       0xd4 drivers/net/built-in.o
 .text.zynq_gem_miiphy_write
                0x040294fc       0x30 drivers/net/built-in.o
 .text.zynq_gem_recv
                0x0402952c       0x78 drivers/net/built-in.o
 .text.zynq_gem_miiphy_read
                0x040295a4       0x2c drivers/net/built-in.o
 .text.zynq_gem_probe
                0x040295d0      0x1cc drivers/net/built-in.o
 .text.zynq_gem_read_rom_mac
                0x0402979c       0x1c drivers/net/built-in.o
 .text.genphy_shutdown
                0x040297b8        0x8 drivers/net/phy/built-in.o
                0x040297b8                genphy_shutdown
 .text.genphy_restart_aneg
                0x040297c0       0x5c drivers/net/phy/built-in.o
                0x040297c0                genphy_restart_aneg
 .text.genphy_config_aneg
                0x0402981c      0x200 drivers/net/phy/built-in.o
                0x0402981c                genphy_config_aneg
 .text.genphy_config
                0x04029a1c       0xc4 drivers/net/phy/built-in.o
                0x04029a1c                genphy_config
 .text.genphy_update_link
                0x04029ae0      0x14c drivers/net/phy/built-in.o
                0x04029ae0                genphy_update_link
 .text.genphy_parse_link
                0x04029c2c      0x19c drivers/net/phy/built-in.o
                0x04029c2c                genphy_parse_link
 .text.genphy_startup
                0x04029dc8       0x20 drivers/net/phy/built-in.o
                0x04029dc8                genphy_startup
 .text.phy_init
                0x04029de8       0x18 drivers/net/phy/built-in.o
                0x04029de8                phy_init
 .text.phy_register
                0x04029e00       0x28 drivers/net/phy/built-in.o
                0x04029e00                phy_register
 .text.get_phy_id
                0x04029e28       0x70 drivers/net/phy/built-in.o
                0x04029e28                get_phy_id
 .text.get_phy_device_by_mask
                0x04029e98      0x290 drivers/net/phy/built-in.o
 .text.phy_reset
                0x0402a128       0xb8 drivers/net/phy/built-in.o
                0x0402a128                phy_reset
 .text.phy_find_by_mask
                0x0402a1e0       0x3c drivers/net/phy/built-in.o
                0x0402a1e0                phy_find_by_mask
 .text.phy_connect_dev
                0x0402a21c       0x50 drivers/net/phy/built-in.o
                0x0402a21c                phy_connect_dev
 .text.phy_connect
                0x0402a26c       0x50 drivers/net/phy/built-in.o
                0x0402a26c                phy_connect
 .text.phy_startup
                0x0402a2bc       0x1c drivers/net/phy/built-in.o
                0x0402a2bc                phy_startup
 .text.board_phy_config
                0x0402a2d8       0x1c drivers/net/phy/built-in.o
                0x0402a2d8                board_phy_config
 .text.phy_config
                0x0402a2f4        0x4 drivers/net/phy/built-in.o
                0x0402a2f4                phy_config
 .text.phy_get_interface_by_name
                0x0402a2f8       0x44 drivers/net/phy/built-in.o
                0x0402a2f8                phy_get_interface_by_name
 .text.m88e1xxx_parse_status
                0x0402a33c      0x110 drivers/net/phy/built-in.o
 .text.m88e1011s_startup
                0x0402a44c       0x20 drivers/net/phy/built-in.o
 .text.m88e1118_startup
                0x0402a46c       0x50 drivers/net/phy/built-in.o
 .text.m88e1011s_config
                0x0402a4bc       0xf8 drivers/net/phy/built-in.o
 .text.m88e1118_config
                0x0402a5b4       0xb8 drivers/net/phy/built-in.o
 .text.m88e1121_config
                0x0402a66c       0xcc drivers/net/phy/built-in.o
 .text.m88e1145_config
                0x0402a738      0x10c drivers/net/phy/built-in.o
 .text.m88e1149_config
                0x0402a844       0xc4 drivers/net/phy/built-in.o
 .text.m88e1310_config
                0x0402a908      0x15c drivers/net/phy/built-in.o
 .text.m88e1111s_config
                0x0402aa64      0x224 drivers/net/phy/built-in.o
 .text.m88e1145_startup
                0x0402ac88       0x4c drivers/net/phy/built-in.o
 .text.m88e1518_phy_writebits
                0x0402acd4       0x80 drivers/net/phy/built-in.o
                0x0402acd4                m88e1518_phy_writebits
 .text.m88e1518_config
                0x0402ad54      0x1dc drivers/net/phy/built-in.o
 .text.m88e1510_config
                0x0402af30       0xa4 drivers/net/phy/built-in.o
 .text.phy_marvell_init
                0x0402afd4       0x84 drivers/net/phy/built-in.o
                0x0402afd4                phy_marvell_init
 .text.rtl8211b_probe
                0x0402b058        0x8 drivers/net/phy/built-in.o
 .text.rtl8211x_startup
                0x0402b060      0x11c drivers/net/phy/built-in.o
 .text.rtl8211f_startup
                0x0402b17c      0x108 drivers/net/phy/built-in.o
 .text.rtl8211x_config
                0x0402b284       0xc0 drivers/net/phy/built-in.o
 .text.rtl8211f_config
                0x0402b344      0x124 drivers/net/phy/built-in.o
 .text.rtl8211e_startup
                0x0402b468       0x20 drivers/net/phy/built-in.o
 .text.phy_realtek_init
                0x0402b488       0x3c drivers/net/phy/built-in.o
                0x0402b488                phy_realtek_init
 .text.xilinxphy_config
                0x0402b4c4       0x80 drivers/net/phy/built-in.o
 .text.xilinxphy_startup
                0x0402b544       0xc4 drivers/net/phy/built-in.o
 .text.phy_xilinx_init
                0x0402b608       0x18 drivers/net/phy/built-in.o
                0x0402b608                phy_xilinx_init
 .text._serial_putc
                0x0402b620       0x40 drivers/serial/built-in.o
 .text._serial_getc
                0x0402b660       0x2c drivers/serial/built-in.o
 .text._serial_tstc
                0x0402b68c       0x24 drivers/serial/built-in.o
 .text.serial_stub_putc
                0x0402b6b0        0x8 drivers/serial/built-in.o
 .text.serial_stub_getc
                0x0402b6b8        0x8 drivers/serial/built-in.o
                0x0402b6b8                serial_stub_getc
 .text.serial_stub_tstc
                0x0402b6c0        0x8 drivers/serial/built-in.o
                0x0402b6c0                serial_stub_tstc
 .text.serial_pre_remove
                0x0402b6c8        0x8 drivers/serial/built-in.o
 .text.serial_post_probe
                0x0402b6d0       0xc4 drivers/serial/built-in.o
 .text.serial_stub_puts
                0x0402b794       0x28 drivers/serial/built-in.o
                0x0402b794                serial_stub_puts
 .text.serial_init
                0x0402b7bc      0x15c drivers/serial/built-in.o
                0x0402b7bc                serial_init
 .text.serial_initialize
                0x0402b918        0x4 drivers/serial/built-in.o
                0x0402b918                serial_initialize
 .text.serial_putc
                0x0402b91c       0x18 drivers/serial/built-in.o
                0x0402b91c                serial_putc
 .text.serial_puts
                0x0402b934       0x38 drivers/serial/built-in.o
                0x0402b934                serial_puts
 .text.serial_getc
                0x0402b96c       0x14 drivers/serial/built-in.o
                0x0402b96c                serial_getc
 .text.serial_tstc
                0x0402b980       0x14 drivers/serial/built-in.o
                0x0402b980                serial_tstc
 .text.serial_setbrg
                0x0402b994       0x30 drivers/serial/built-in.o
                0x0402b994                serial_setbrg
 .text.on_baudrate
                0x0402b9c4       0xe4 drivers/serial/built-in.o
 .text.serial_stdio_init
                0x0402baa8        0x4 drivers/serial/built-in.o
                0x0402baa8                serial_stdio_init
 .text.arm_dcc_getc
                0x0402baac       0x14 drivers/serial/built-in.o
 .text.arm_dcc_putc
                0x0402bac0       0x28 drivers/serial/built-in.o
 .text.arm_dcc_pending
                0x0402bae8       0x18 drivers/serial/built-in.o
 .text._uart_zynq_serial_setbrg
                0x0402bb00       0xc0 drivers/serial/built-in.o
 .text._uart_zynq_serial_putc
                0x0402bbc0       0x28 drivers/serial/built-in.o
 .text.zynq_serial_pending
                0x0402bbe8       0x2c drivers/serial/built-in.o
 .text.zynq_serial_putc
                0x0402bc14       0x1c drivers/serial/built-in.o
 .text.zynq_serial_getc
                0x0402bc30       0x30 drivers/serial/built-in.o
 .text.zynq_serial_probe
                0x0402bc60       0x2c drivers/serial/built-in.o
 .text.zynq_serial_setbrg
                0x0402bc8c       0x30 drivers/serial/built-in.o
                0x0402bc8c                zynq_serial_setbrg
 .text.zynq_serial_ofdata_to_platdata
                0x0402bcbc       0x24 drivers/serial/built-in.o
 .text.printch  0x0402bce0       0x44 drivers/serial/built-in.o
                0x0402bce0                printch
 .text.spi_set_speed_mode
                0x0402bd24       0x80 drivers/spi/built-in.o
 .text.spi_child_pre_probe
                0x0402bda4       0x3c drivers/spi/built-in.o
 .text.spi_post_probe
                0x0402bde0       0x34 drivers/spi/built-in.o
 .text.dm_spi_claim_bus
                0x0402be14       0xac drivers/spi/built-in.o
                0x0402be14                dm_spi_claim_bus
 .text.dm_spi_release_bus
                0x0402bec0       0x1c drivers/spi/built-in.o
                0x0402bec0                dm_spi_release_bus
 .text.dm_spi_xfer
                0x0402bedc       0x40 drivers/spi/built-in.o
                0x0402bedc                dm_spi_xfer
 .text.spi_claim_bus
                0x0402bf1c        0x8 drivers/spi/built-in.o
                0x0402bf1c                spi_claim_bus
 .text.spi_release_bus
                0x0402bf24        0x8 drivers/spi/built-in.o
                0x0402bf24                spi_release_bus
 .text.spi_xfer
                0x0402bf2c        0x8 drivers/spi/built-in.o
                0x0402bf2c                spi_xfer
 .text.spi_find_chip_select
                0x0402bf34       0x54 drivers/spi/built-in.o
                0x0402bf34                spi_find_chip_select
 .text.spi_find_bus_and_cs
                0x0402bf88       0x5c drivers/spi/built-in.o
                0x0402bf88                spi_find_bus_and_cs
 .text.spi_get_bus_and_cs
                0x0402bfe4      0x164 drivers/spi/built-in.o
                0x0402bfe4                spi_get_bus_and_cs
 .text.spi_slave_ofdata_to_platdata
                0x0402c148      0x16c drivers/spi/built-in.o
                0x0402c148                spi_slave_ofdata_to_platdata
 .text.spi_child_post_bind
                0x0402c2b4       0x30 drivers/spi/built-in.o
 .text.zynq_qspi_set_mode
                0x0402c2e4       0x44 drivers/spi/built-in.o
 .text.zynq_qspi_set_speed
                0x0402c328       0x9c drivers/spi/built-in.o
 .text.zynq_qspi_release_bus
                0x0402c3c4       0x24 drivers/spi/built-in.o
 .text.zynq_qspi_claim_bus
                0x0402c3e8       0x24 drivers/spi/built-in.o
 .text.zynq_qspi_fill_tx_fifo
                0x0402c40c      0x184 drivers/spi/built-in.o
 .text.zynq_qspi_child_pre_probe
                0x0402c590       0x44 drivers/spi/built-in.o
 .text.zynq_qspi_probe
                0x0402c5d4      0x138 drivers/spi/built-in.o
 .text.zynq_qspi_ofdata_to_platdata
                0x0402c70c      0x110 drivers/spi/built-in.o
 .text.zynq_qspi_xfer
                0x0402c81c      0x360 drivers/spi/built-in.o
 .text.usb_ep_autoconfig
                0x0402cb7c      0x1f8 drivers/usb/gadget/built-in.o
                0x0402cb7c                usb_ep_autoconfig
 .text.usb_ep_autoconfig_reset
                0x0402cd74       0x38 drivers/usb/gadget/built-in.o
                0x0402cd74                usb_ep_autoconfig_reset
 .text.usb_descriptor_fillbuf
                0x0402cdac       0x64 drivers/usb/gadget/built-in.o
                0x0402cdac                usb_descriptor_fillbuf
 .text.usb_gadget_get_string
                0x0402ce10      0x188 drivers/usb/gadget/built-in.o
                0x0402ce10                usb_gadget_get_string
 .text.ci_ep_disable
                0x0402cf98       0x10 drivers/usb/gadget/built-in.o
 .text.ci_ep_dequeue
                0x0402cfa8       0x80 drivers/usb/gadget/built-in.o
 .text.ci_ep_free_request
                0x0402d028       0x54 drivers/usb/gadget/built-in.o
 .text.ci_ep_alloc_request
                0x0402d07c       0x68 drivers/usb/gadget/built-in.o
 .text.ci_flush_qtd
                0x0402d0e4       0x18 drivers/usb/gadget/built-in.o
 .text.ci_flush_qh
                0x0402d0fc       0x18 drivers/usb/gadget/built-in.o
 .text.stop_activity
                0x0402d114       0xa4 drivers/usb/gadget/built-in.o
 .text.ep_enable
                0x0402d1b8       0x58 drivers/usb/gadget/built-in.o
 .text.ci_ep_enable
                0x0402d210       0x64 drivers/usb/gadget/built-in.o
 .text.ci_ep_submit_next_request
                0x0402d274      0x1cc drivers/usb/gadget/built-in.o
 .text.ci_ep_queue
                0x0402d440      0x138 drivers/usb/gadget/built-in.o
 .text.udc_irq  0x0402d578      0x520 drivers/usb/gadget/built-in.o
                0x0402d578                udc_irq
 .text.usb_gadget_handle_interrupts
                0x0402da98       0x30 drivers/usb/gadget/built-in.o
                0x0402da98                usb_gadget_handle_interrupts
 .text.udc_disconnect
                0x0402dac8       0x48 drivers/usb/gadget/built-in.o
                0x0402dac8                udc_disconnect
 .text.ci_pullup
                0x0402db10       0x78 drivers/usb/gadget/built-in.o
 .text.usb_gadget_register_driver
                0x0402db88      0x274 drivers/usb/gadget/built-in.o
                0x0402db88                usb_gadget_register_driver
 .text.usb_gadget_unregister_driver
                0x0402ddfc       0x4c drivers/usb/gadget/built-in.o
                0x0402ddfc                usb_gadget_unregister_driver
 .text.dfu_usb_get_reset
                0x0402de48       0x20 drivers/usb/gadget/built-in.o
                0x0402de48                dfu_usb_get_reset
 .text.count_configs
                0x0402de68       0x68 drivers/usb/gadget/built-in.o
 .text.collect_langs
                0x0402ded0       0x50 drivers/usb/gadget/built-in.o
 .text.composite_setup_complete
                0x0402df20        0x4 drivers/usb/gadget/built-in.o
 .text.composite_suspend
                0x0402df24       0x80 drivers/usb/gadget/built-in.o
 .text.composite_resume
                0x0402dfa4       0x7c drivers/usb/gadget/built-in.o
 .text.g_dnl_unbind
                0x0402e020       0x28 drivers/usb/gadget/built-in.o
 .text.lookup_string
                0x0402e048       0x4c drivers/usb/gadget/built-in.o
 .text.composite_unbind
                0x0402e094      0x128 drivers/usb/gadget/built-in.o
 .text.composite_bind
                0x0402e1bc      0x128 drivers/usb/gadget/built-in.o
 .text.g_dnl_do_config
                0x0402e2e4       0x5c drivers/usb/gadget/built-in.o
 .text.reset_config.isra.6
                0x0402e340       0x5c drivers/usb/gadget/built-in.o
 .text.composite_disconnect
                0x0402e39c       0x40 drivers/usb/gadget/built-in.o
 .text.composite_setup
                0x0402e3dc      0x850 drivers/usb/gadget/built-in.o
 .text.usb_add_function
                0x0402ec2c       0xc4 drivers/usb/gadget/built-in.o
                0x0402ec2c                usb_add_function
 .text.usb_interface_id
                0x0402ecf0       0x28 drivers/usb/gadget/built-in.o
                0x0402ecf0                usb_interface_id
 .text.usb_add_config
                0x0402ed18       0xcc drivers/usb/gadget/built-in.o
                0x0402ed18                usb_add_config
 .text.usb_string_id
                0x0402ede4       0x20 drivers/usb/gadget/built-in.o
                0x0402ede4                usb_string_id
 .text.usb_composite_register
                0x0402ee04       0x80 drivers/usb/gadget/built-in.o
                0x0402ee04                usb_composite_register
 .text.usb_composite_unregister
                0x0402ee84       0x30 drivers/usb/gadget/built-in.o
                0x0402ee84                usb_composite_unregister
 .text.g_dnl_bind_fixup
                0x0402eeb4        0x8 drivers/usb/gadget/built-in.o
                0x0402eeb4                g_dnl_bind_fixup
 .text.g_dnl_get_board_bcd_device_number
                0x0402eebc        0x4 drivers/usb/gadget/built-in.o
                0x0402eebc                g_dnl_get_board_bcd_device_number
 .text.g_dnl_bind
                0x0402eec0      0x15c drivers/usb/gadget/built-in.o
 .text.g_dnl_detach
                0x0402f01c       0x10 drivers/usb/gadget/built-in.o
                0x0402f01c                g_dnl_detach
 .text.g_dnl_trigger_detach
                0x0402f02c       0x14 drivers/usb/gadget/built-in.o
                0x0402f02c                g_dnl_trigger_detach
 .text.g_dnl_clear_detach
                0x0402f040       0x14 drivers/usb/gadget/built-in.o
                0x0402f040                g_dnl_clear_detach
 .text.g_dnl_register
                0x0402f054       0x40 drivers/usb/gadget/built-in.o
                0x0402f054                g_dnl_register
 .text.g_dnl_unregister
                0x0402f094        0xc drivers/usb/gadget/built-in.o
                0x0402f094                g_dnl_unregister
 .text.thor_setup_complete
                0x0402f0a0        0x4 drivers/usb/gadget/built-in.o
 .text.thor_rx_tx_complete
                0x0402f0a4       0x90 drivers/usb/gadget/built-in.o
 .text.thor_func_setup
                0x0402f134       0xb8 drivers/usb/gadget/built-in.o
 .text.thor_rx_data
                0x0402f1ec       0xe8 drivers/usb/gadget/built-in.o
 .text.thor_tx_data
                0x0402f2d4       0xe0 drivers/usb/gadget/built-in.o
 .text.send_rsp
                0x0402f3b4       0x2c drivers/usb/gadget/built-in.o
 .text.thor_add
                0x0402f3e0       0xa0 drivers/usb/gadget/built-in.o
                0x0402f3e0                thor_add
 .text.thor_func_disable
                0x0402f480       0xd0 drivers/usb/gadget/built-in.o
 .text.thor_unbind
                0x0402f550       0x30 drivers/usb/gadget/built-in.o
 .text.thor_func_bind
                0x0402f580      0x1c8 drivers/usb/gadget/built-in.o
 .text.send_data_rsp.constprop.4
                0x0402f748       0x44 drivers/usb/gadget/built-in.o
 .text.thor_start_ep
                0x0402f78c       0x7c drivers/usb/gadget/built-in.o
 .text.thor_func_set_alt
                0x0402f808      0x118 drivers/usb/gadget/built-in.o
 .text.process_data
                0x0402f920      0x634 drivers/usb/gadget/built-in.o
 .text.thor_init
                0x0402ff54       0xf0 drivers/usb/gadget/built-in.o
                0x0402ff54                thor_init
 .text.thor_handle
                0x04030044       0x6c drivers/usb/gadget/built-in.o
                0x04030044                thor_handle
 .text.handle_getstate
                0x040300b0       0x1c drivers/usb/gadget/built-in.o
 .text.dfu_set_alt
                0x040300cc       0x1c drivers/usb/gadget/built-in.o
 .text.__dfu_get_alt
                0x040300e8        0x8 drivers/usb/gadget/built-in.o
 .text.dfu_disable
                0x040300f0       0x14 drivers/usb/gadget/built-in.o
 .text.dfu_add  0x04030104       0xf0 drivers/usb/gadget/built-in.o
                0x04030104                dfu_add
 .text.dfu_handle
                0x040301f4       0xe4 drivers/usb/gadget/built-in.o
 .text.dnload_request_flush
                0x040302d8       0x20 drivers/usb/gadget/built-in.o
 .text.dnload_request_complete
                0x040302f8       0x38 drivers/usb/gadget/built-in.o
 .text.dfu_unbind
                0x04030330       0x8c drivers/usb/gadget/built-in.o
 .text.dfu_bind
                0x040303bc      0x1ec drivers/usb/gadget/built-in.o
 .text.handle_upload.isra.5
                0x040305a8       0x24 drivers/usb/gadget/built-in.o
 .text.handle_getstatus
                0x040305cc      0x138 drivers/usb/gadget/built-in.o
 .text.state_dfu_error
                0x04030704       0x64 drivers/usb/gadget/built-in.o
 .text.state_dfu_manifest_sync
                0x04030768       0x6c drivers/usb/gadget/built-in.o
 .text.state_dfu_dnload_idle
                0x040307d4       0xbc drivers/usb/gadget/built-in.o
 .text.state_dfu_dnbusy
                0x04030890       0x30 drivers/usb/gadget/built-in.o
 .text.state_dfu_dnload_sync
                0x040308c0       0x48 drivers/usb/gadget/built-in.o
 .text.state_app_detach
                0x04030908       0x48 drivers/usb/gadget/built-in.o
 .text.state_app_idle
                0x04030950       0x6c drivers/usb/gadget/built-in.o
 .text.state_dfu_upload_idle
                0x040309bc       0xa0 drivers/usb/gadget/built-in.o
 .text.state_dfu_manifest
                0x04030a5c       0x64 drivers/usb/gadget/built-in.o
 .text.state_dfu_idle
                0x04030ac0       0xec drivers/usb/gadget/built-in.o
 .text.usb_child_post_bind
                0x04030bac       0x7c drivers/usb/host/built-in.o
                0x04030bac                usb_child_post_bind
 .text.remove_inactive_children.isra.1
                0x04030c28       0x74 drivers/usb/host/built-in.o
 .text.usb_disable_asynch
                0x04030c9c       0x20 drivers/usb/host/built-in.o
                0x04030c9c                usb_disable_asynch
 .text.submit_int_msg
                0x04030cbc       0x4c drivers/usb/host/built-in.o
                0x04030cbc                submit_int_msg
 .text.submit_control_msg
                0x04030d08       0x8c drivers/usb/host/built-in.o
                0x04030d08                submit_control_msg
 .text.submit_bulk_msg
                0x04030d94       0x44 drivers/usb/host/built-in.o
                0x04030d94                submit_bulk_msg
 .text.usb_alloc_device
                0x04030dd8       0x28 drivers/usb/host/built-in.o
                0x04030dd8                usb_alloc_device
 .text.usb_reset_root_port
                0x04030e00       0x28 drivers/usb/host/built-in.o
                0x04030e00                usb_reset_root_port
 .text.usb_stop
                0x04030e28       0xb4 drivers/usb/host/built-in.o
                0x04030e28                usb_stop
 .text.usb_setup_ehci_gadget
                0x04030edc       0x6c drivers/usb/host/built-in.o
                0x04030edc                usb_setup_ehci_gadget
 .text.usb_match_device
                0x04030f48       0xe8 drivers/usb/host/built-in.o
                0x04030f48                usb_match_device
 .text.usb_match_one_id_intf
                0x04031030       0x98 drivers/usb/host/built-in.o
                0x04031030                usb_match_one_id_intf
 .text.usb_match_one_id
                0x040310c8       0x34 drivers/usb/host/built-in.o
                0x040310c8                usb_match_one_id
 .text.usb_get_bus
                0x040310fc       0x2c drivers/usb/host/built-in.o
                0x040310fc                usb_get_bus
 .text.usb_scan_device
                0x04031128      0x270 drivers/usb/host/built-in.o
                0x04031128                usb_scan_device
 .text.usb_scan_bus.isra.2
                0x04031398       0x74 drivers/usb/host/built-in.o
 .text.usb_init
                0x0403140c      0x1d0 drivers/usb/host/built-in.o
                0x0403140c                usb_init
 .text.usb_child_pre_probe
                0x040315dc       0x68 drivers/usb/host/built-in.o
                0x040315dc                usb_child_pre_probe
 .text.ehci_get_port_speed
                0x04031644        0x8 drivers/usb/host/built-in.o
 .text.ehci_set_usbmode
                0x0403164c       0x18 drivers/usb/host/built-in.o
 .text.ehci_get_portsc_register
                0x04031664       0x18 drivers/usb/host/built-in.o
 .text.ehci_powerup_fixup
                0x0403167c        0x8 drivers/usb/host/built-in.o
 .text.handshake
                0x04031684       0x50 drivers/usb/host/built-in.o
 .text.ehci_td_buffer
                0x040316d4       0x80 drivers/usb/host/built-in.o
 .text.ehci_shutdown
                0x04031754       0xac drivers/usb/host/built-in.o
 .text._ehci_poll_int_queue
                0x04031800       0xbc drivers/usb/host/built-in.o
 .text.ehci_poll_int_queue
                0x040318bc        0xc drivers/usb/host/built-in.o
 .text.disable_periodic.isra.0
                0x040318c8       0x48 drivers/usb/host/built-in.o
 .text.enable_periodic.isra.1
                0x04031910       0x50 drivers/usb/host/built-in.o
 .text.ehci_get_ctrl.isra.2
                0x04031960       0x10 drivers/usb/host/built-in.o
 .text._ehci_destroy_int_queue
                0x04031970       0xe4 drivers/usb/host/built-in.o
 .text.ehci_destroy_int_queue
                0x04031a54        0xc drivers/usb/host/built-in.o
 .text.ehci_update_endpt2_dev_n_port.isra.3
                0x04031a60       0x5c drivers/usb/host/built-in.o
 .text.ehci_submit_async
                0x04031abc      0x594 drivers/usb/host/built-in.o
 .text.ehci_submit_bulk_msg
                0x04032050       0x34 drivers/usb/host/built-in.o
 .text._ehci_create_int_queue.isra.4
                0x04032084      0x3a8 drivers/usb/host/built-in.o
 .text.ehci_create_int_queue
                0x0403242c       0x20 drivers/usb/host/built-in.o
 .text.ehci_submit_int_msg
                0x0403244c       0xb0 drivers/usb/host/built-in.o
 .text.ehci_submit_control_msg
                0x040324fc      0x52c drivers/usb/host/built-in.o
 .text.ehci_register
                0x04032a28      0x31c drivers/usb/host/built-in.o
                0x04032a28                ehci_register
 .text.ehci_deregister
                0x04032d44       0x20 drivers/usb/host/built-in.o
                0x04032d44                ehci_deregister
 .text.ehci_zynq_ofdata_to_platdata
                0x04032d64       0x2c drivers/usb/host/built-in.o
 .text.ehci_zynq_probe
                0x04032d90       0xc4 drivers/usb/host/built-in.o
 .text.ulpi_init
                0x04032e54       0x90 drivers/usb/ulpi/built-in.o
                0x04032e54                ulpi_init
 .text.ulpi_wakeup
                0x04032ee4       0x74 drivers/usb/ulpi/built-in.o
 .text.ulpi_request.part.1
                0x04032f58       0x5c drivers/usb/ulpi/built-in.o
 .text.ulpi_write
                0x04032fb4       0x48 drivers/usb/ulpi/built-in.o
                0x04032fb4                ulpi_write
 .text.ulpi_read
                0x04032ffc       0x54 drivers/usb/ulpi/built-in.o
                0x04032ffc                ulpi_read
 .text.fs_probe_unsupported
                0x04033050       0x18 fs/built-in.o
 .text.fs_ls_unsupported
                0x04033068        0x8 fs/built-in.o
 .text.fs_exists_unsupported
                0x04033070        0x8 fs/built-in.o
 .text.fs_size_unsupported
                0x04033078        0x8 fs/built-in.o
 .text.fs_read_unsupported
                0x04033080        0x8 fs/built-in.o
 .text.fs_write_unsupported
                0x04033088        0x8 fs/built-in.o
 .text.fs_close_unsupported
                0x04033090        0x4 fs/built-in.o
 .text.fs_uuid_unsupported
                0x04033094        0x8 fs/built-in.o
 .text.fs_get_info
                0x0403309c       0x34 fs/built-in.o
 .text.fs_close
                0x040330d0       0x28 fs/built-in.o
 .text.fs_set_blk_dev
                0x040330f8       0xb4 fs/built-in.o
                0x040330f8                fs_set_blk_dev
 .text.fs_ls    0x040331ac       0x3c fs/built-in.o
                0x040331ac                fs_ls
 .text.fs_exists
                0x040331e8       0x34 fs/built-in.o
                0x040331e8                fs_exists
 .text.fs_size  0x0403321c       0x3c fs/built-in.o
                0x0403321c                fs_size
 .text.fs_read  0x04033258       0xa4 fs/built-in.o
                0x04033258                fs_read
 .text.fs_write
                0x040332fc       0x90 fs/built-in.o
                0x040332fc                fs_write
 .text.do_size  0x0403338c       0x60 fs/built-in.o
                0x0403338c                do_size
 .text.do_load  0x040333ec      0x250 fs/built-in.o
                0x040333ec                do_load
 .text.do_ls    0x0403363c       0x68 fs/built-in.o
                0x0403363c                do_ls
 .text.file_exists
                0x040336a4       0x2c fs/built-in.o
                0x040336a4                file_exists
 .text.do_save  0x040336d0      0x180 fs/built-in.o
                0x040336d0                do_save
 .text.do_fs_type
                0x04033850       0x78 fs/built-in.o
                0x04033850                do_fs_type
 .text.get_fs   0x040338c8        0xc fs/built-in.o
                0x040338c8                get_fs
 .text.ext4fs_free_node
                0x040338d4       0x20 fs/built-in.o
                0x040338d4                ext4fs_free_node
 .text.ext4fs_read_file
                0x040338f4      0x3a4 fs/built-in.o
                0x040338f4                ext4fs_read_file
 .text.ext4fs_ls
                0x04033c98       0x78 fs/built-in.o
                0x04033c98                ext4fs_ls
 .text.ext4fs_exists
                0x04033d10       0x1c fs/built-in.o
                0x04033d10                ext4fs_exists
 .text.ext4fs_size
                0x04033d2c        0x4 fs/built-in.o
                0x04033d2c                ext4fs_size
 .text.ext4fs_read
                0x04033d30       0x5c fs/built-in.o
                0x04033d30                ext4fs_read
 .text.ext4fs_probe
                0x04033d8c       0x30 fs/built-in.o
                0x04033d8c                ext4fs_probe
 .text.ext4_read_file
                0x04033dbc       0x70 fs/built-in.o
                0x04033dbc                ext4_read_file
 .text.ext4fs_uuid
                0x04033e2c       0x1c fs/built-in.o
                0x04033e2c                ext4fs_uuid
 .text.ext4fs_get_group_descriptor
                0x04033e48       0x10 fs/built-in.o
                0x04033e48                ext4fs_get_group_descriptor
 .text.ext4fs_sb_get_free_blocks
                0x04033e58       0x24 fs/built-in.o
                0x04033e58                ext4fs_sb_get_free_blocks
 .text.ext4fs_sb_set_free_blocks
                0x04033e7c       0x10 fs/built-in.o
                0x04033e7c                ext4fs_sb_set_free_blocks
 .text.ext4fs_bg_get_free_blocks
                0x04033e8c       0x1c fs/built-in.o
                0x04033e8c                ext4fs_bg_get_free_blocks
 .text.ext4fs_bg_get_block_id
                0x04033ea8       0x40 fs/built-in.o
                0x04033ea8                ext4fs_bg_get_block_id
 .text.ext4fs_bg_get_inode_id
                0x04033ee8       0x40 fs/built-in.o
                0x04033ee8                ext4fs_bg_get_inode_id
 .text.ext4fs_bg_get_inode_table_id
                0x04033f28       0x40 fs/built-in.o
                0x04033f28                ext4fs_bg_get_inode_table_id
 .text.ext4fs_div_roundup
                0x04033f68       0x20 fs/built-in.o
                0x04033f68                ext4fs_div_roundup
 .text.put_ext4
                0x04033f88      0x17c fs/built-in.o
                0x04033f88                put_ext4
 .text.ext4fs_set_block_bmap
                0x04034104       0xb0 fs/built-in.o
                0x04034104                ext4fs_set_block_bmap
 .text.ext4fs_reset_block_bmap
                0x040341b4       0x9c fs/built-in.o
                0x040341b4                ext4fs_reset_block_bmap
 .text.ext4fs_set_inode_bmap
                0x04034250       0x74 fs/built-in.o
                0x04034250                ext4fs_set_inode_bmap
 .text.ext4fs_reset_inode_bmap
                0x040342c4       0x70 fs/built-in.o
                0x040342c4                ext4fs_reset_inode_bmap
 .text.ext4fs_checksum_update
                0x04034334       0x68 fs/built-in.o
                0x04034334                ext4fs_checksum_update
 .text.ext4fs_get_new_blk_no
                0x0403439c      0x410 fs/built-in.o
                0x0403439c                ext4fs_get_new_blk_no
 .text.ext4fs_get_new_inode_no
                0x040347ac      0x404 fs/built-in.o
                0x040347ac                ext4fs_get_new_inode_no
 .text.ext4fs_allocate_blocks
                0x04034bb0      0x628 fs/built-in.o
                0x04034bb0                ext4fs_allocate_blocks
 .text.ext4fs_read_inode
                0x040351d8      0x150 fs/built-in.o
                0x040351d8                ext4fs_read_inode
 .text.ext4fs_iget
                0x04035328       0x30 fs/built-in.o
                0x04035328                ext4fs_iget
 .text.read_allocated_block
                0x04035358      0x8fc fs/built-in.o
                0x04035358                read_allocated_block
 .text.ext4fs_update_parent_dentry
                0x04035c54      0x370 fs/built-in.o
                0x04035c54                ext4fs_update_parent_dentry
 .text.search_dir
                0x04035fc4      0x13c fs/built-in.o
 .text.ext4fs_get_parent_inode_num
                0x04036100      0x444 fs/built-in.o
                0x04036100                ext4fs_get_parent_inode_num
 .text.ext4fs_filename_unlink
                0x04036544      0x1bc fs/built-in.o
                0x04036544                ext4fs_filename_unlink
 .text.ext4fs_reinit_global
                0x04036700       0xbc fs/built-in.o
                0x04036700                ext4fs_reinit_global
 .text.ext4fs_close
                0x040367bc       0x60 fs/built-in.o
                0x040367bc                ext4fs_close
 .text.ext4fs_iterate_dir
                0x0403681c      0x2d8 fs/built-in.o
                0x0403681c                ext4fs_iterate_dir
 .text.ext4fs_find_file1
                0x04036af4      0x2a8 fs/built-in.o
 .text.ext4fs_find_file
                0x04036d9c       0x78 fs/built-in.o
                0x04036d9c                ext4fs_find_file
 .text.ext4fs_open
                0x04036e14       0xac fs/built-in.o
                0x04036e14                ext4fs_open
 .text.ext4fs_mount
                0x04036ec0       0xe4 fs/built-in.o
                0x04036ec0                ext4fs_mount
 .text.ext4fs_set_blk_dev
                0x04036fa4       0x6c fs/built-in.o
                0x04036fa4                ext4fs_set_blk_dev
 .text.ext4fs_devread
                0x04037010      0x254 fs/built-in.o
                0x04037010                ext4fs_devread
 .text.ext4_read_superblock
                0x04037264       0x3c fs/built-in.o
                0x04037264                ext4_read_superblock
 .text.ext4fs_update
                0x040372a0      0x118 fs/built-in.o
 .text.ext4fs_get_bgdtable
                0x040373b8       0xc0 fs/built-in.o
                0x040373b8                ext4fs_get_bgdtable
 .text.ext4fs_deinit
                0x04037478      0x190 fs/built-in.o
                0x04037478                ext4fs_deinit
 .text.ext4fs_init
                0x04037608      0x2e4 fs/built-in.o
                0x04037608                ext4fs_init
 .text.ext4fs_write
                0x040378ec     0x1254 fs/built-in.o
                0x040378ec                ext4fs_write
 .text.ext4_write_file
                0x04038b40       0x60 fs/built-in.o
                0x04038b40                ext4_write_file
 .text.ext4fs_dump_metadata
                0x04038ba0       0x58 fs/built-in.o
                0x04038ba0                ext4fs_dump_metadata
 .text.ext4fs_free_journal
                0x04038bf8       0xe8 fs/built-in.o
                0x04038bf8                ext4fs_free_journal
 .text.ext4fs_log_gdt
                0x04038ce0       0xc8 fs/built-in.o
                0x04038ce0                ext4fs_log_gdt
 .text.ext4fs_log_journal
                0x04038da8       0xec fs/built-in.o
                0x04038da8                ext4fs_log_journal
 .text.ext4fs_put_metadata
                0x04038e94       0xd8 fs/built-in.o
                0x04038e94                ext4fs_put_metadata
 .text.ext4fs_push_revoke_blk
                0x04038f6c       0xd8 fs/built-in.o
                0x04038f6c                ext4fs_push_revoke_blk
 .text.ext4fs_free_revoke_blks
                0x04039044       0x70 fs/built-in.o
                0x04039044                ext4fs_free_revoke_blks
 .text.check_blknr_for_revoke
                0x040390b4       0x6c fs/built-in.o
                0x040390b4                check_blknr_for_revoke
 .text.recover_transaction
                0x04039120      0x168 fs/built-in.o
                0x04039120                recover_transaction
 .text.print_jrnl_status
                0x04039288       0x18 fs/built-in.o
                0x04039288                print_jrnl_status
 .text.ext4fs_check_journal_state
                0x040392a0      0x30c fs/built-in.o
                0x040392a0                ext4fs_check_journal_state
 .text.ext4fs_init_journal
                0x040395ac      0x270 fs/built-in.o
                0x040395ac                ext4fs_init_journal
 .text.ext4fs_update_journal
                0x0403981c      0x334 fs/built-in.o
                0x0403981c                ext4fs_update_journal
 .text.ext2fs_crc16
                0x04039b50       0x3c fs/built-in.o
                0x04039b50                ext2fs_crc16
 .text.downcase
                0x04039b8c       0x30 fs/built-in.o
 .text.dirdelim
                0x04039bbc       0x30 fs/built-in.o
 .text.mkcksum  0x04039bec       0x50 fs/built-in.o
 .text.disk_read
                0x04039c3c       0x6c fs/built-in.o
 .text.get_cluster
                0x04039ca8      0x170 fs/built-in.o
 .text.get_name
                0x04039e18       0xac fs/built-in.o
 .text.read_bootsectandvi
                0x04039ec4      0x128 fs/built-in.o
 .text.disk_write
                0x04039fec       0x88 fs/built-in.o
 .text.flush_dirty_fat_buffer
                0x0403a074       0xa8 fs/built-in.o
 .text.get_fatent
                0x0403a11c      0x170 fs/built-in.o
 .text.find_empty_cluster
                0x0403a28c       0x2c fs/built-in.o
 .text.set_fatent_value
                0x0403a2b8      0x1c0 fs/built-in.o
 .text.set_cluster
                0x0403a478      0x168 fs/built-in.o
 .text.set_name
                0x0403a5e0      0x13c fs/built-in.o
 .text.check_overflow
                0x0403a71c       0xac fs/built-in.o
 .text.slot2str
                0x0403a7c8       0xbc fs/built-in.o
 .text.get_vfatname
                0x0403a884      0x1b8 fs/built-in.o
 .text.flush_dir_table.constprop.8
                0x0403aa3c       0xe4 fs/built-in.o
 .text.do_fat_write
                0x0403ab20      0xc10 fs/built-in.o
 .text.fat_set_blk_dev
                0x0403b730       0xcc fs/built-in.o
                0x0403b730                fat_set_blk_dev
 .text.do_fat_read_at
                0x0403b7fc      0xc9c fs/built-in.o
                0x0403b7fc                do_fat_read_at
 .text.do_fat_read
                0x0403c498       0x3c fs/built-in.o
                0x0403c498                do_fat_read
 .text.file_fat_detectfs
                0x0403c4d4      0x148 fs/built-in.o
                0x0403c4d4                file_fat_detectfs
 .text.file_fat_ls
                0x0403c61c       0x2c fs/built-in.o
                0x0403c61c                file_fat_ls
 .text.fat_exists
                0x0403c648       0x44 fs/built-in.o
                0x0403c648                fat_exists
 .text.fat_size
                0x0403c68c       0x38 fs/built-in.o
                0x0403c68c                fat_size
 .text.file_fat_read_at
                0x0403c6c4       0x60 fs/built-in.o
                0x0403c6c4                file_fat_read_at
 .text.fat_read_file
                0x0403c724       0x48 fs/built-in.o
                0x0403c724                fat_read_file
 .text.fat_close
                0x0403c76c        0x4 fs/built-in.o
                0x0403c76c                fat_close
 .text.file_fat_write
                0x0403c770       0x5c fs/built-in.o
                0x0403c770                file_fat_write
 .text.efi_return_handle
                0x0403c7cc        0xc lib/built-in.o
                0x0403c7cc                efi_return_handle
 .text.efi_load_pe
                0x0403c7d8      0x2b8 lib/built-in.o
                0x0403c7d8                efi_load_pe
 .text.efi_search.isra.1.part.2
                0x0403ca90       0x48 lib/built-in.o
 .text.efi_save_gd
                0x0403cad8       0x10 lib/built-in.o
                0x0403cad8                efi_save_gd
 .text.efi_restore_gd
                0x0403cae8       0x2c lib/built-in.o
                0x0403cae8                efi_restore_gd
 .text.efi_set_mem
                0x0403cb14       0x1c lib/built-in.o
 .text.efi_copy_mem
                0x0403cb30       0x18 lib/built-in.o
 .text.efi_exit
                0x0403cb48       0x30 lib/built-in.o
 .text.efi_allocate_pages_ext
                0x0403cb78       0x2c lib/built-in.o
                0x0403cb78                efi_allocate_pages_ext
 .text.efi_free_pages_ext
                0x0403cba4       0x2c lib/built-in.o
                0x0403cba4                efi_free_pages_ext
 .text.efi_get_memory_map_ext
                0x0403cbd0       0x38 lib/built-in.o
                0x0403cbd0                efi_get_memory_map_ext
 .text.efi_calculate_crc32
                0x0403cc08       0x3c lib/built-in.o
 .text.efi_uninstall_multiple_protocol_interfaces
                0x0403cc44       0x28 lib/built-in.o
 .text.efi_install_multiple_protocol_interfaces
                0x0403cc6c       0x28 lib/built-in.o
 .text.efi_locate_protocol
                0x0403cc94       0x44 lib/built-in.o
 .text.efi_locate_handle_buffer
                0x0403ccd8       0x1c lib/built-in.o
 .text.efi_protocols_per_handle
                0x0403ccf4       0x1c lib/built-in.o
 .text.efi_open_protocol_information
                0x0403cd10       0x1c lib/built-in.o
 .text.efi_close_protocol
                0x0403cd2c       0x1c lib/built-in.o
 .text.efi_open_protocol
                0x0403cd48       0xc4 lib/built-in.o
 .text.efi_handle_protocol
                0x0403ce0c       0x1c lib/built-in.o
 .text.efi_disconnect_controller
                0x0403ce28       0x1c lib/built-in.o
 .text.efi_connect_controller
                0x0403ce44       0x1c lib/built-in.o
 .text.efi_set_watchdog_timer
                0x0403ce60       0x1c lib/built-in.o
 .text.efi_stall
                0x0403ce7c       0x20 lib/built-in.o
 .text.efi_get_next_monotonic_count
                0x0403ce9c       0x38 lib/built-in.o
 .text.efi_exit_boot_services
                0x0403ced4       0x3c lib/built-in.o
 .text.efi_unload_image
                0x0403cf10       0x68 lib/built-in.o
 .text.efi_start_image
                0x0403cf78       0x74 lib/built-in.o
 .text.efi_load_image
                0x0403cfec       0xc0 lib/built-in.o
 .text.efi_locate_device_path
                0x0403d0ac       0x1c lib/built-in.o
 .text.efi_locate_handle
                0x0403d0c8       0xdc lib/built-in.o
 .text.efi_register_protocol_notify
                0x0403d1a4       0x1c lib/built-in.o
 .text.efi_uninstall_protocol_interface
                0x0403d1c0       0x1c lib/built-in.o
 .text.efi_reinstall_protocol_interface
                0x0403d1dc       0x1c lib/built-in.o
 .text.efi_install_protocol_interface
                0x0403d1f8       0x1c lib/built-in.o
 .text.efi_check_event
                0x0403d214       0x1c lib/built-in.o
 .text.efi_close_event
                0x0403d230       0x30 lib/built-in.o
 .text.efi_signal_event
                0x0403d260       0x1c lib/built-in.o
 .text.efi_set_timer
                0x0403d27c       0xc4 lib/built-in.o
 .text.efi_create_event
                0x0403d340       0x54 lib/built-in.o
 .text.efi_free_pool_ext
                0x0403d394       0x1c lib/built-in.o
 .text.efi_allocate_pool_ext
                0x0403d3b0       0x24 lib/built-in.o
 .text.efi_restore_tpl
                0x0403d3d4       0x18 lib/built-in.o
 .text.efi_raise_tpl
                0x0403d3ec       0x1c lib/built-in.o
 .text.efi_exit_func
                0x0403d408       0x10 lib/built-in.o
                0x0403d408                efi_exit_func
 .text.efi_timer_check
                0x0403d418       0x64 lib/built-in.o
                0x0403d418                efi_timer_check
 .text.efi_wait_for_event
                0x0403d47c       0x40 lib/built-in.o
 .text.efi_install_configuration_table
                0x0403d4bc       0xa4 lib/built-in.o
                0x0403d4bc                efi_install_configuration_table
 .text.efi_install_configuration_table_ext
                0x0403d560       0x24 lib/built-in.o
 .text.efi_get_time_boottime
                0x0403d584        0x8 lib/built-in.o
 .text.efi_reset_system_boottime
                0x0403d58c       0x2c lib/built-in.o
 .text.efi_reset_system_init
                0x0403d5b8        0x4 lib/built-in.o
                0x0403d5b8                efi_reset_system_init
 .text.efi_get_time_init
                0x0403d5bc        0x4 lib/built-in.o
                0x0403d5bc                efi_get_time_init
 .text.efi_runtime_relocate
                0x0403d5c0      0x124 lib/built-in.o
                0x0403d5c0                efi_runtime_relocate
 .text.efi_set_virtual_address_map
                0x0403d6e4      0x184 lib/built-in.o
 .text.efi_cin_lock_std_in
                0x0403d868       0x14 lib/built-in.o
 .text.efi_cin_set_mode
                0x0403d87c       0x14 lib/built-in.o
 .text.efi_cin_get_mode
                0x0403d890       0x44 lib/built-in.o
 .text.efi_cout_set_attribute
                0x0403d8d4       0x14 lib/built-in.o
 .text.efi_cout_test_string
                0x0403d8e8       0x14 lib/built-in.o
 .text.efi_cout_reset
                0x0403d8fc       0x14 lib/built-in.o
 .text.efi_cin_reset
                0x0403d910       0x14 lib/built-in.o
 .text.efi_cout_enable_cursor
                0x0403d924       0x30 lib/built-in.o
 .text.efi_cout_set_cursor_position
                0x0403d954       0x40 lib/built-in.o
 .text.efi_cout_clear_screen
                0x0403d994       0x20 lib/built-in.o
 .text.efi_cout_output_string
                0x0403d9b4       0xf8 lib/built-in.o
 .text.efi_cout_set_mode
                0x0403daac       0x38 lib/built-in.o
 .text.efi_cin_read_key_stroke
                0x0403dae4      0x120 lib/built-in.o
 .text.efi_cout_query_mode
                0x0403dc04      0x21c lib/built-in.o
 .text.efi_mem_cmp
                0x0403de20       0x30 lib/built-in.o
 .text.efi_find_free_memory
                0x0403de50       0xd4 lib/built-in.o
 .text.efi_add_memory_map
                0x0403df24      0x33c lib/built-in.o
                0x0403df24                efi_add_memory_map
 .text.efi_allocate_pages
                0x0403e260       0xa8 lib/built-in.o
                0x0403e260                efi_allocate_pages
 .text.efi_alloc
                0x0403e308       0x4c lib/built-in.o
                0x0403e308                efi_alloc
 .text.efi_free_pages
                0x0403e354       0x38 lib/built-in.o
                0x0403e354                efi_free_pages
 .text.efi_allocate_pool
                0x0403e38c       0x5c lib/built-in.o
                0x0403e38c                efi_allocate_pool
 .text.efi_free_pool
                0x0403e3e8       0x14 lib/built-in.o
                0x0403e3e8                efi_free_pool
 .text.efi_get_memory_map
                0x0403e3fc       0xac lib/built-in.o
                0x0403e3fc                efi_get_memory_map
 .text.efi_memory_init
                0x0403e4a8       0xd4 lib/built-in.o
                0x0403e4a8                efi_memory_init
 .text.efi_disk_open_block
                0x0403e57c       0x10 lib/built-in.o
 .text.efi_disk_open_dp
                0x0403e58c       0x10 lib/built-in.o
 .text.efi_disk_flush_blocks
                0x0403e59c       0x14 lib/built-in.o
 .text.efi_disk_reset
                0x0403e5b0       0x14 lib/built-in.o
 .text.efi_disk_read_blocks
                0x0403e5c4       0x84 lib/built-in.o
 .text.efi_disk_write_blocks
                0x0403e648       0x88 lib/built-in.o
 .text.efi_disk_register
                0x0403e6d0      0x1bc lib/built-in.o
                0x0403e6d0                efi_disk_register
 .text.efi_net_push
                0x0403e88c       0x14 lib/built-in.o
 .text.efi_net_open_dp
                0x0403e8a0       0x10 lib/built-in.o
 .text.efi_net_open_pxe
                0x0403e8b0       0x10 lib/built-in.o
 .text.efi_net_get_status
                0x0403e8c0       0x40 lib/built-in.o
 .text.efi_net_nvdata
                0x0403e900       0x14 lib/built-in.o
 .text.efi_net_mcastiptomac
                0x0403e914       0x14 lib/built-in.o
 .text.efi_net_statistics
                0x0403e928       0x14 lib/built-in.o
 .text.efi_net_station_address
                0x0403e93c       0x14 lib/built-in.o
 .text.efi_net_receive_filters
                0x0403e950       0x14 lib/built-in.o
 .text.efi_net_shutdown
                0x0403e964       0x14 lib/built-in.o
 .text.efi_net_reset
                0x0403e978       0x14 lib/built-in.o
 .text.efi_net_stop
                0x0403e98c       0x14 lib/built-in.o
 .text.efi_net_start
                0x0403e9a0       0x14 lib/built-in.o
 .text.efi_net_initialize
                0x0403e9b4       0x18 lib/built-in.o
 .text.efi_net_receive
                0x0403e9cc       0x94 lib/built-in.o
 .text.efi_net_transmit
                0x0403ea60       0x44 lib/built-in.o
 .text.efi_net_set_dhcp_ack
                0x0403eaa4       0x48 lib/built-in.o
                0x0403eaa4                efi_net_set_dhcp_ack
 .text.efi_net_register
                0x0403eaec      0x238 lib/built-in.o
                0x0403eaec                efi_net_register
 .text.efi_smbios_register
                0x0403ed24       0x4c lib/built-in.o
                0x0403ed24                efi_smbios_register
 .text.zcalloc  0x0403ed70        0x8 lib/built-in.o
                0x0403ed70                zcalloc
 .text.zcfree   0x0403ed78        0x8 lib/built-in.o
                0x0403ed78                zcfree
 .text.inflate_fast
                0x0403ed80      0x590 lib/built-in.o
                0x0403ed80                inflate_fast
 .text.inflate_table
                0x0403f310      0x54c lib/built-in.o
                0x0403f310                inflate_table
 .text.inflateReset
                0x0403f85c       0x78 lib/built-in.o
                0x0403f85c                inflateReset
 .text.inflateInit2_
                0x0403f8d4      0x104 lib/built-in.o
                0x0403f8d4                inflateInit2_
 .text.inflateEnd
                0x0403f9d8       0x68 lib/built-in.o
                0x0403f9d8                inflateEnd
 .text.adler32  0x0403fa40      0x338 lib/built-in.o
                0x0403fa40                adler32
 .text.inflate  0x0403fd78     0x1518 lib/built-in.o
                0x0403fd78                inflate
 .text.fdt_check_header
                0x04041290       0x74 lib/built-in.o
                0x04041290                fdt_check_header
 .text.fdt_offset_ptr
                0x04041304       0x6c lib/built-in.o
                0x04041304                fdt_offset_ptr
 .text.fdt_next_tag
                0x04041370       0xfc lib/built-in.o
                0x04041370                fdt_next_tag
 .text._fdt_check_node_offset
                0x0404146c       0x3c lib/built-in.o
                0x0404146c                _fdt_check_node_offset
 .text._fdt_check_prop_offset
                0x040414a8       0x3c lib/built-in.o
                0x040414a8                _fdt_check_prop_offset
 .text.fdt_next_node
                0x040414e4       0xb8 lib/built-in.o
                0x040414e4                fdt_next_node
 .text.fdt_first_subnode
                0x0404159c       0x34 lib/built-in.o
                0x0404159c                fdt_first_subnode
 .text.fdt_next_subnode
                0x040415d0       0x50 lib/built-in.o
                0x040415d0                fdt_next_subnode
 .text._fdt_find_string
                0x04041620       0x5c lib/built-in.o
                0x04041620                _fdt_find_string
 .text.fdt_move
                0x0404167c       0x44 lib/built-in.o
                0x0404167c                fdt_move
 .text.fdt_path_next_separator
                0x040416c0       0x58 lib/built-in.o
 .text._nextprop
                0x04041718       0x5c lib/built-in.o
 .text.fdt_string
                0x04041774       0x14 lib/built-in.o
                0x04041774                fdt_string
 .text.fdt_get_mem_rsv
                0x04041788       0x60 lib/built-in.o
                0x04041788                fdt_get_mem_rsv
 .text.fdt_num_mem_rsv
                0x040417e8       0x3c lib/built-in.o
                0x040417e8                fdt_num_mem_rsv
 .text.fdt_subnode_offset_namelen
                0x04041824       0xd0 lib/built-in.o
                0x04041824                fdt_subnode_offset_namelen
 .text.fdt_subnode_offset
                0x040418f4       0x30 lib/built-in.o
                0x040418f4                fdt_subnode_offset
 .text.fdt_get_name
                0x04041924       0x74 lib/built-in.o
                0x04041924                fdt_get_name
 .text.fdt_first_property_offset
                0x04041998       0x20 lib/built-in.o
                0x04041998                fdt_first_property_offset
 .text.fdt_next_property_offset
                0x040419b8       0x20 lib/built-in.o
                0x040419b8                fdt_next_property_offset
 .text.fdt_get_property_by_offset
                0x040419d8       0x54 lib/built-in.o
                0x040419d8                fdt_get_property_by_offset
 .text.fdt_get_property_namelen
                0x04041a2c       0xb8 lib/built-in.o
                0x04041a2c                fdt_get_property_namelen
 .text.fdt_get_property
                0x04041ae4       0x3c lib/built-in.o
                0x04041ae4                fdt_get_property
 .text.fdt_getprop_namelen
                0x04041b20       0x20 lib/built-in.o
                0x04041b20                fdt_getprop_namelen
 .text.fdt_getprop_by_offset
                0x04041b40       0x48 lib/built-in.o
                0x04041b40                fdt_getprop_by_offset
 .text.fdt_getprop
                0x04041b88       0x3c lib/built-in.o
                0x04041b88                fdt_getprop
 .text.fdt_get_phandle
                0x04041bc4       0x70 lib/built-in.o
                0x04041bc4                fdt_get_phandle
 .text.fdt_get_alias_namelen
                0x04041c34       0x48 lib/built-in.o
                0x04041c34                fdt_get_alias_namelen
 .text.fdt_path_offset_namelen
                0x04041c7c       0xe8 lib/built-in.o
                0x04041c7c                fdt_path_offset_namelen
 .text.fdt_path_offset
                0x04041d64       0x28 lib/built-in.o
                0x04041d64                fdt_path_offset
 .text.fdt_supernode_atdepth_offset
                0x04041d8c       0xb8 lib/built-in.o
                0x04041d8c                fdt_supernode_atdepth_offset
 .text.fdt_node_depth
                0x04041e44       0x28 lib/built-in.o
                0x04041e44                fdt_node_depth
 .text.fdt_parent_offset
                0x04041e6c       0x30 lib/built-in.o
                0x04041e6c                fdt_parent_offset
 .text.fdt_node_offset_by_phandle
                0x04041e9c       0x78 lib/built-in.o
                0x04041e9c                fdt_node_offset_by_phandle
 .text.fdt_stringlist_contains
                0x04041f14       0x7c lib/built-in.o
                0x04041f14                fdt_stringlist_contains
 .text.fdt_stringlist_get
                0x04041f90       0xac lib/built-in.o
                0x04041f90                fdt_stringlist_get
 .text.fdt_node_check_compatible
                0x0404203c       0x40 lib/built-in.o
                0x0404203c                fdt_node_check_compatible
 .text.fdt_node_offset_by_compatible
                0x0404207c       0x74 lib/built-in.o
                0x0404207c                fdt_node_offset_by_compatible
 .text._fdt_blocks_misordered
                0x040420f0       0x68 lib/built-in.o
 .text._fdt_splice
                0x04042158       0x94 lib/built-in.o
 .text._fdt_splice_mem_rsv
                0x040421ec       0x58 lib/built-in.o
 .text._fdt_splice_struct
                0x04042244       0x4c lib/built-in.o
 .text._fdt_packblocks
                0x04042290       0xa8 lib/built-in.o
 .text._fdt_find_add_string
                0x04042338       0xa4 lib/built-in.o
 .text._fdt_add_property
                0x040423dc       0x98 lib/built-in.o
 .text._fdt_rw_check_header
                0x04042474       0x60 lib/built-in.o
 .text.fdt_add_mem_rsv
                0x040424d4       0x88 lib/built-in.o
                0x040424d4                fdt_add_mem_rsv
 .text.fdt_del_mem_rsv
                0x0404255c       0x5c lib/built-in.o
                0x0404255c                fdt_del_mem_rsv
 .text.fdt_setprop
                0x040425b8       0xcc lib/built-in.o
                0x040425b8                fdt_setprop
 .text.fdt_delprop
                0x04042684       0x64 lib/built-in.o
                0x04042684                fdt_delprop
 .text.fdt_add_subnode_namelen
                0x040426e8       0xf0 lib/built-in.o
                0x040426e8                fdt_add_subnode_namelen
 .text.fdt_add_subnode
                0x040427d8       0x30 lib/built-in.o
                0x040427d8                fdt_add_subnode
 .text.fdt_del_node
                0x04042808       0x60 lib/built-in.o
                0x04042808                fdt_del_node
 .text.fdt_open_into
                0x04042868      0x19c lib/built-in.o
                0x04042868                fdt_open_into
 .text.fdt_strerror
                0x04042a04       0x58 lib/built-in.o
                0x04042a04                fdt_strerror
 .text._fdt_node_end_offset
                0x04042a5c       0x44 lib/built-in.o
                0x04042a5c                _fdt_node_end_offset
 .text.fdt_find_regions
                0x04042aa0      0x39c lib/built-in.o
                0x04042aa0                fdt_find_regions
 .text.fdt_address_cells
                0x04042e3c       0x4c lib/built-in.o
                0x04042e3c                fdt_address_cells
 .text.fdt_size_cells
                0x04042e88       0x48 lib/built-in.o
                0x04042e88                fdt_size_cells
 .text.crc16_ccitt
                0x04042ed0       0x3c lib/built-in.o
                0x04042ed0                crc16_ccitt
 .text.fdtdec_get_int
                0x04042f0c       0x38 lib/built-in.o
                0x04042f0c                fdtdec_get_int
 .text.fdtdec_get_uint
                0x04042f44       0x38 lib/built-in.o
                0x04042f44                fdtdec_get_uint
 .text.gzalloc  0x04042f7c       0x10 lib/built-in.o
                0x04042f7c                gzalloc
 .text.gzfree   0x04042f8c        0x8 lib/built-in.o
                0x04042f8c                gzfree
 .text.zunzip   0x04042f94      0x118 lib/built-in.o
                0x04042f94                zunzip
 .text.gunzip   0x040430ac       0xb8 lib/built-in.o
                0x040430ac                gunzip
 .text.smbios_write_type127
                0x04043164       0x54 lib/built-in.o
 .text.smbios_write_type32
                0x040431b8       0x54 lib/built-in.o
 .text.smbios_string_table_len
                0x0404320c       0x38 lib/built-in.o
 .text.smbios_add_string
                0x04043244       0x6c lib/built-in.o
 .text.smbios_write_type3
                0x040432b0       0x8c lib/built-in.o
 .text.smbios_write_type2
                0x0404333c       0x9c lib/built-in.o
 .text.smbios_write_type0
                0x040433d8       0xf4 lib/built-in.o
 .text.smbios_write_type1
                0x040434cc       0xc4 lib/built-in.o
 .text.smbios_write_type4
                0x04043590       0xd8 lib/built-in.o
 .text.write_smbios_table
                0x04043668      0x11c lib/built-in.o
                0x04043668                write_smbios_table
 .text.initcall_run_list
                0x04043784       0x64 lib/built-in.o
                0x04043784                initcall_run_list
 .text.lmb_add_region
                0x040437e8      0x1a4 lib/built-in.o
 .text.lmb_init
                0x0404398c       0x28 lib/built-in.o
                0x0404398c                lmb_init
 .text.lmb_add  0x040439b4        0x4 lib/built-in.o
                0x040439b4                lmb_add
 .text.lmb_free
                0x040439b8      0x104 lib/built-in.o
                0x040439b8                lmb_free
 .text.lmb_reserve
                0x04043abc        0x8 lib/built-in.o
                0x04043abc                lmb_reserve
 .text.__lmb_alloc_base
                0x04043ac4      0x130 lib/built-in.o
                0x04043ac4                __lmb_alloc_base
 .text.lmb_alloc_base
                0x04043bf4       0x34 lib/built-in.o
                0x04043bf4                lmb_alloc_base
 .text.lmb_alloc
                0x04043c28        0x8 lib/built-in.o
                0x04043c28                lmb_alloc
 .text.board_lmb_reserve
                0x04043c30        0x4 lib/built-in.o
                0x04043c30                board_lmb_reserve
 .text.byteReverse
                0x04043c34       0x34 lib/built-in.o
 .text.MD5Transform
                0x04043c68      0xa30 lib/built-in.o
 .text.MD5Update
                0x04044698       0xe0 lib/built-in.o
 .text.MD5Final
                0x04044778       0xc8 lib/built-in.o
 .text.md5_wd   0x04044840       0x68 lib/built-in.o
                0x04044840                md5_wd
 .text.string_to_ip
                0x040448a8       0x60 lib/built-in.o
                0x040448a8                string_to_ip
 .text.qsort    0x04044908       0xe0 lib/built-in.o
                0x04044908                qsort
 .text.strcmp_compar
                0x040449e8        0xc lib/built-in.o
                0x040449e8                strcmp_compar
 .text.merge    0x040449f4       0x68 lib/built-in.o
 .text.list_sort
                0x04044a5c      0x194 lib/built-in.o
                0x04044a5c                list_sort
 .text.rsa_verify_with_keynode
                0x04044bf0      0x270 lib/built-in.o
 .text.rsa_verify
                0x04044e60      0x19c lib/built-in.o
                0x04044e60                rsa_verify
 .text.hash_calculate
                0x04044ffc       0xc8 lib/built-in.o
                0x04044ffc                hash_calculate
 .text.subtract_modulus
                0x040450c4       0x54 lib/built-in.o
 .text.greater_equal_modulus
                0x04045118       0x4c lib/built-in.o
 .text.montgomery_mul
                0x04045164      0x174 lib/built-in.o
 .text.rsa_convert_big_endian
                0x040452d8       0x24 lib/built-in.o
 .text.rsa_mod_exp_sw
                0x040452fc      0x328 lib/built-in.o
                0x040452fc                rsa_mod_exp_sw
 .text.sha1_process
                0x04045624     0x14a8 lib/built-in.o
 .text.sha1_update.part.0
                0x04046acc       0xbc lib/built-in.o
 .text.sha1_starts
                0x04046b88       0x4c lib/built-in.o
                0x04046b88                sha1_starts
 .text.sha1_update
                0x04046bd4        0xc lib/built-in.o
                0x04046bd4                sha1_update
 .text.sha1_finish
                0x04046be0      0x144 lib/built-in.o
                0x04046be0                sha1_finish
 .text.sha1_csum_wd
                0x04046d24       0x40 lib/built-in.o
                0x04046d24                sha1_csum_wd
 .text.sha256_process
                0x04046d64     0x240c lib/built-in.o
 .text.sha256_update.part.0
                0x04049170       0xbc lib/built-in.o
 .text.sha256_starts
                0x0404922c       0x70 lib/built-in.o
                0x0404922c                sha256_starts
 .text.sha256_update
                0x0404929c        0xc lib/built-in.o
                0x0404929c                sha256_update
 .text.sha256_finish
                0x040492a8      0x1b0 lib/built-in.o
                0x040492a8                sha256_finish
 .text.sha256_csum_wd
                0x04049458       0x40 lib/built-in.o
                0x04049458                sha256_csum_wd
 .text.get_prop_check_min_len
                0x04049498       0x3c lib/built-in.o
 .text.fdtdec_get_is_enabled
                0x040494d4       0x3c lib/built-in.o
                0x040494d4                fdtdec_get_is_enabled
 .text.fdtdec_get_alias_seq
                0x04049510      0x118 lib/built-in.o
                0x04049510                fdtdec_get_alias_seq
 .text.fdtdec_get_chosen_prop
                0x04049628       0x34 lib/built-in.o
                0x04049628                fdtdec_get_chosen_prop
 .text.fdtdec_get_chosen_node
                0x0404965c       0x28 lib/built-in.o
                0x0404965c                fdtdec_get_chosen_node
 .text.fdtdec_prepare_fdt
                0x04049684       0x44 lib/built-in.o
                0x04049684                fdtdec_prepare_fdt
 .text.fdtdec_lookup_phandle
                0x040496c8       0x34 lib/built-in.o
                0x040496c8                fdtdec_lookup_phandle
 .text.fdtdec_get_int_array
                0x040496fc       0x5c lib/built-in.o
                0x040496fc                fdtdec_get_int_array
 .text.fdtdec_get_bool
                0x04049758       0x1c lib/built-in.o
                0x04049758                fdtdec_get_bool
 .text.fdtdec_get_config_int
                0x04049774       0x40 lib/built-in.o
                0x04049774                fdtdec_get_config_int
 .text.fdtdec_get_config_string
                0x040497b4       0x3c lib/built-in.o
                0x040497b4                fdtdec_get_config_string
 .text.fdtdec_get_number
                0x040497f0       0x3c lib/built-in.o
                0x040497f0                fdtdec_get_number
 .text.fdtdec_get_addr_size_fixed
                0x0404982c       0xb8 lib/built-in.o
                0x0404982c                fdtdec_get_addr_size_fixed
 .text.fdtdec_get_addr_size
                0x040498e4       0x30 lib/built-in.o
                0x040498e4                fdtdec_get_addr_size
 .text.fdt_get_resource
                0x04049914       0xe0 lib/built-in.o
                0x04049914                fdt_get_resource
 .text.fdtdec_setup_memory_size
                0x040499f4       0x64 lib/built-in.o
                0x040499f4                fdtdec_setup_memory_size
 .text.fdtdec_setup_memory_banksize
                0x04049a58       0x7c lib/built-in.o
                0x04049a58                fdtdec_setup_memory_banksize
 .text.fdtdec_setup
                0x04049ad4       0x34 lib/built-in.o
                0x04049ad4                fdtdec_setup
 .text.cmpkey   0x04049b08       0x14 lib/built-in.o
 .text._hdelete.isra.1
                0x04049b1c       0x50 lib/built-in.o
 .text.drop_var_from_set.part.2
                0x04049b6c       0x50 lib/built-in.o
 .text.match_string
                0x04049bbc       0xb4 lib/built-in.o
 .text.match_entry
                0x04049c70       0xc0 lib/built-in.o
 .text.hcreate_r
                0x04049d30       0xb0 lib/built-in.o
                0x04049d30                hcreate_r
 .text.hdestroy_r
                0x04049de0       0x78 lib/built-in.o
                0x04049de0                hdestroy_r
 .text.hmatch_r
                0x04049e58       0xa0 lib/built-in.o
                0x04049e58                hmatch_r
 .text.hsearch_r
                0x04049ef8      0x4b8 lib/built-in.o
                0x04049ef8                hsearch_r
 .text.hdelete_r
                0x0404a3b0       0xd8 lib/built-in.o
                0x0404a3b0                hdelete_r
 .text.hexport_r
                0x0404a488      0x29c lib/built-in.o
                0x0404a488                hexport_r
 .text.himport_r
                0x0404a724      0x3ec lib/built-in.o
                0x0404a724                himport_r
 .text.hwalk_r  0x0404ab10       0x58 lib/built-in.o
                0x0404ab10                hwalk_r
 .text.display_options
                0x0404ab68       0x20 lib/built-in.o
                0x0404ab68                display_options
 .text.print_size
                0x0404ab88      0x130 lib/built-in.o
                0x0404ab88                print_size
 .text.print_buffer
                0x0404acb8      0x1b4 lib/built-in.o
                0x0404acb8                print_buffer
 .text.crc32_no_comp
                0x0404ae6c       0xd8 lib/built-in.o
                0x0404ae6c                crc32_no_comp
 .text.crc32    0x0404af44       0x14 lib/built-in.o
                0x0404af44                crc32
 .text.crc32_wd
                0x0404af58        0x4 lib/built-in.o
                0x0404af58                crc32_wd
 .text.crc32_wd_buf
                0x0404af5c       0x40 lib/built-in.o
                0x0404af5c                crc32_wd_buf
 .text.__div64_32
                0x0404af9c       0xd4 lib/built-in.o
                0x0404af9c                __div64_32
 .text.hang     0x0404b070       0x1c lib/built-in.o
                0x0404b070                hang
 .text.skip_spaces
                0x0404b08c       0x28 lib/built-in.o
                0x0404b08c                skip_spaces
 .text.strim    0x0404b0b4       0x60 lib/built-in.o
                0x0404b0b4                strim
 .text.emit     0x0404b114       0x24 lib/built-in.o
 .text.store_char_in_data
                0x0404b138       0x28 lib/built-in.o
 .text.get_escape_char
                0x0404b160       0x80 lib/built-in.o
 .text.match    0x0404b1e0      0x400 lib/built-in.o
 .text.loop_greedy
                0x0404b5e0       0x94 lib/built-in.o
 .text.loop_non_greedy
                0x0404b674       0x80 lib/built-in.o
 .text.fixup_branch.part.0
                0x0404b6f4       0x38 lib/built-in.o
 .text.quantifier
                0x0404b72c       0xb8 lib/built-in.o
 .text.compile  0x0404b7e4      0x3a4 lib/built-in.o
 .text.slre_compile
                0x0404bb88       0xb8 lib/built-in.o
                0x0404bb88                slre_compile
 .text.slre_match
                0x0404bc40       0x98 lib/built-in.o
                0x0404bc40                slre_match
 .text.strncasecmp
                0x0404bcd8       0x9c lib/built-in.o
                0x0404bcd8                strncasecmp
 .text.strcasecmp
                0x0404bd74        0x8 lib/built-in.o
                0x0404bd74                strcasecmp
 .text.strcpy   0x0404bd7c       0x18 lib/built-in.o
                0x0404bd7c                strcpy
 .text.strncpy  0x0404bd94       0x24 lib/built-in.o
                0x0404bd94                strncpy
 .text.strcat   0x0404bdb8       0x30 lib/built-in.o
                0x0404bdb8                strcat
 .text.strncat  0x0404bde8       0x54 lib/built-in.o
                0x0404bde8                strncat
 .text.strcmp   0x0404be3c       0x28 lib/built-in.o
                0x0404be3c                strcmp
 .text.strncmp  0x0404be64       0x3c lib/built-in.o
                0x0404be64                strncmp
 .text.strchr   0x0404bea0       0x2c lib/built-in.o
                0x0404bea0                strchr
 .text.strlen   0x0404becc       0x20 lib/built-in.o
                0x0404becc                strlen
 .text.strlcpy  0x0404beec       0x50 lib/built-in.o
                0x0404beec                strlcpy
 .text.strrchr  0x0404bf3c       0x3c lib/built-in.o
                0x0404bf3c                strrchr
 .text.strnlen  0x0404bf78       0x2c lib/built-in.o
                0x0404bf78                strnlen
 .text.strdup   0x0404bfa4       0x40 lib/built-in.o
                0x0404bfa4                strdup
 .text.strspn   0x0404bfe4       0x3c lib/built-in.o
                0x0404bfe4                strspn
 .text.strpbrk  0x0404c020       0x3c lib/built-in.o
                0x0404c020                strpbrk
 .text.strtok   0x0404c05c       0x88 lib/built-in.o
                0x0404c05c                strtok
 .text.strsep   0x0404c0e4       0x38 lib/built-in.o
                0x0404c0e4                strsep
 .text.memmove  0x0404c11c       0x48 lib/built-in.o
                0x0404c11c                memmove
 .text.memcmp   0x0404c164       0x30 lib/built-in.o
                0x0404c164                memcmp
 .text.strstr   0x0404c194       0x6c lib/built-in.o
                0x0404c194                strstr
 .text.memchr   0x0404c200       0x30 lib/built-in.o
                0x0404c200                memchr
 .text.tick_to_time
                0x0404c230       0x64 lib/built-in.o
 .text.timer_read_counter
                0x0404c294       0x18 lib/built-in.o
                0x0404c294                timer_read_counter
 .text.get_ticks
                0x0404c2ac       0x40 lib/built-in.o
                0x0404c2ac                get_ticks
 .text.get_timer
                0x0404c2ec       0x18 lib/built-in.o
                0x0404c2ec                get_timer
 .text.timer_get_us
                0x0404c304       0x24 lib/built-in.o
                0x0404c304                timer_get_us
 .text.__udelay
                0x0404c328       0x9c lib/built-in.o
                0x0404c328                __udelay
 .text.udelay   0x0404c3c4       0x30 lib/built-in.o
                0x0404c3c4                udelay
 .text.mdelay   0x0404c3f4       0x24 lib/built-in.o
                0x0404c3f4                mdelay
 .text.rand_r   0x0404c418       0x1c lib/built-in.o
                0x0404c418                rand_r
 .text.put_dec_trunc
                0x0404c434       0xd4 lib/built-in.o
 .text.string   0x0404c508       0xbc lib/built-in.o
 .text.put_dec  0x0404c5c4      0x13c lib/built-in.o
 .text.number   0x0404c700      0x2b0 lib/built-in.o
 .text.vsnprintf_internal
                0x0404c9b0      0x6a4 lib/built-in.o
 .text.vscnprintf
                0x0404d054       0x24 lib/built-in.o
                0x0404d054                vscnprintf
 .text.snprintf
                0x0404d078       0x28 lib/built-in.o
                0x0404d078                snprintf
 .text.vsprintf
                0x0404d0a0       0x14 lib/built-in.o
                0x0404d0a0                vsprintf
 .text.sprintf  0x0404d0b4       0x28 lib/built-in.o
                0x0404d0b4                sprintf
 .text.printf   0x0404d0dc       0x48 lib/built-in.o
                0x0404d0dc                printf
 .text.vprintf  0x0404d124       0x3c lib/built-in.o
                0x0404d124                vprintf
 .text.simple_itoa
                0x0404d160       0x54 lib/built-in.o
                0x0404d160                simple_itoa
 .text.str2off  0x0404d1b4       0x40 lib/built-in.o
                0x0404d1b4                str2off
 .text.panic_finish
                0x0404d1f4       0x30 lib/built-in.o
 .text.panic_str
                0x0404d224        0xc lib/built-in.o
                0x0404d224                panic_str
 .text.panic    0x0404d230       0x1c lib/built-in.o
                0x0404d230                panic
 .text.simple_strtoul
                0x0404d24c       0xb8 lib/built-in.o
                0x0404d24c                simple_strtoul
 .text.strict_strtoul
                0x0404d304       0x78 lib/built-in.o
                0x0404d304                strict_strtoul
 .text.simple_strtol
                0x0404d37c       0x28 lib/built-in.o
                0x0404d37c                simple_strtol
 .text.ustrtoul
                0x0404d3a4       0x70 lib/built-in.o
                0x0404d3a4                ustrtoul
 .text.simple_strtoull
                0x0404d414       0xdc lib/built-in.o
                0x0404d414                simple_strtoull
 .text.ustrtoull
                0x0404d4f0       0x88 lib/built-in.o
                0x0404d4f0                ustrtoull
 .text.trailing_strtoln
                0x0404d578       0x74 lib/built-in.o
                0x0404d578                trailing_strtoln
 .text.trailing_strtol
                0x0404d5ec        0x8 lib/built-in.o
                0x0404d5ec                trailing_strtol
 .text.compute_ip_checksum
                0x0404d5f4       0x68 net/built-in.o
                0x0404d5f4                compute_ip_checksum
 .text.ip_checksum_ok
                0x0404d65c       0x1c net/built-in.o
                0x0404d65c                ip_checksum_ok
 .text.arp_init
                0x0404d678       0x50 net/built-in.o
                0x0404d678                arp_init
 .text.arp_raw_request
                0x0404d6c8       0xc0 net/built-in.o
                0x0404d6c8                arp_raw_request
 .text.arp_request
                0x0404d788       0x84 net/built-in.o
                0x0404d788                arp_request
 .text.arp_timeout_check
                0x0404d80c       0x90 net/built-in.o
                0x0404d80c                arp_timeout_check
 .text.arp_receive
                0x0404d89c      0x1fc net/built-in.o
                0x0404d89c                arp_receive
 .text.dhcp_extended
                0x0404da98      0x1d8 net/built-in.o
 .text.dhcp_process_options
                0x0404dc70      0x1d4 net/built-in.o
 .text.dhcp_packet_process_options
                0x0404de44       0x84 net/built-in.o
 .text.dhcp_handler
                0x0404dec8      0x3ec net/built-in.o
 .text.bootp_reset
                0x0404e2b4       0x44 net/built-in.o
                0x0404e2b4                bootp_reset
 .text.bootp_request
                0x0404e2f8      0x288 net/built-in.o
                0x0404e2f8                bootp_request
 .text.bootp_timeout_handler
                0x0404e580       0x7c net/built-in.o
 .text.dhcp_request
                0x0404e5fc        0x4 net/built-in.o
                0x0404e5fc                dhcp_request
 .text.eth_get_uclass_priv
                0x0404e600       0x20 net/built-in.o
 .text.eth_pre_remove
                0x0404e620       0x30 net/built-in.o
 .text.eth_write_hwaddr
                0x0404e650       0xdc net/built-in.o
 .text.on_ethaddr
                0x0404e72c       0x84 net/built-in.o
 .text.eth_post_probe
                0x0404e7b0      0x1d4 net/built-in.o
 .text.eth_post_bind
                0x0404e984       0x34 net/built-in.o
 .text.eth_set_current_to_next
                0x0404e9b8       0x38 net/built-in.o
                0x0404e9b8                eth_set_current_to_next
 .text.eth_get_dev
                0x0404e9f0       0x38 net/built-in.o
                0x0404e9f0                eth_get_dev
 .text.eth_set_dev
                0x0404ea28       0x3c net/built-in.o
                0x0404ea28                eth_set_dev
 .text.eth_pre_unbind
                0x0404ea64       0x28 net/built-in.o
 .text.eth_get_dev_by_name
                0x0404ea8c       0xf0 net/built-in.o
                0x0404ea8c                eth_get_dev_by_name
 .text.eth_get_ethaddr
                0x0404eb7c       0x20 net/built-in.o
                0x0404eb7c                eth_get_ethaddr
 .text.eth_halt_state_only
                0x0404eb9c       0x28 net/built-in.o
                0x0404eb9c                eth_halt_state_only
 .text.eth_get_dev_index
                0x0404ebc4       0x24 net/built-in.o
                0x0404ebc4                eth_get_dev_index
 .text.eth_init
                0x0404ebe8       0xfc net/built-in.o
                0x0404ebe8                eth_init
 .text.eth_halt
                0x0404ece4       0x3c net/built-in.o
                0x0404ece4                eth_halt
 .text.eth_send
                0x0404ed20       0x50 net/built-in.o
                0x0404ed20                eth_send
 .text.eth_rx   0x0404ed70       0xb4 net/built-in.o
                0x0404ed70                eth_rx
 .text.eth_initialize
                0x0404ee24       0xf8 net/built-in.o
                0x0404ee24                eth_initialize
 .text.eth_parse_enetaddr
                0x0404ef1c       0x54 net/built-in.o
                0x0404ef1c                eth_parse_enetaddr
 .text.eth_getenv_enetaddr
                0x0404ef70       0x5c net/built-in.o
                0x0404ef70                eth_getenv_enetaddr
 .text.eth_setenv_enetaddr
                0x0404efcc       0x34 net/built-in.o
                0x0404efcc                eth_setenv_enetaddr
 .text.eth_getenv_enetaddr_by_index
                0x0404f000       0x50 net/built-in.o
                0x0404f000                eth_getenv_enetaddr_by_index
 .text.eth_setenv_enetaddr_by_index
                0x0404f050       0x50 net/built-in.o
                0x0404f050                eth_setenv_enetaddr_by_index
 .text.eth_common_init
                0x0404f0a0       0x18 net/built-in.o
                0x0404f0a0                eth_common_init
 .text.eth_mac_skip
                0x0404f0b8       0x40 net/built-in.o
                0x0404f0b8                eth_mac_skip
 .text.eth_get_name
                0x0404f0f8       0x28 net/built-in.o
                0x0404f0f8                eth_get_name
 .text.eth_current_changed
                0x0404f120       0x94 net/built-in.o
                0x0404f120                eth_current_changed
 .text.eth_try_another
                0x0404f1b4       0x84 net/built-in.o
                0x0404f1b4                eth_try_another
 .text.eth_set_current
                0x0404f238       0x8c net/built-in.o
                0x0404f238                eth_set_current
 .text.start_again_timeout_handler
                0x0404f2c4       0x14 net/built-in.o
 .text.dummy_handler
                0x0404f2d8        0x4 net/built-in.o
 .text.on_ipaddr
                0x0404f2dc       0x30 net/built-in.o
 .text.on_gatewayip
                0x0404f30c       0x30 net/built-in.o
 .text.on_netmask
                0x0404f33c       0x30 net/built-in.o
 .text.on_serverip
                0x0404f36c       0x30 net/built-in.o
 .text.net_init_loop
                0x0404f39c       0x2c net/built-in.o
 .text.net_clear_handlers
                0x0404f3c8       0x34 net/built-in.o
 .text.net_auto_load
                0x0404f3fc       0x64 net/built-in.o
                0x0404f3fc                net_auto_load
 .text.net_init
                0x0404f460       0x70 net/built-in.o
                0x0404f460                net_init
 .text.net_start_again
                0x0404f4d0      0x168 net/built-in.o
                0x0404f4d0                net_start_again
 .text.net_loop
                0x0404f638      0x3a4 net/built-in.o
                0x0404f638                net_loop
 .text.net_set_udp_handler
                0x0404f9dc       0x20 net/built-in.o
                0x0404f9dc                net_set_udp_handler
 .text.net_get_arp_handler
                0x0404f9fc       0x10 net/built-in.o
                0x0404f9fc                net_get_arp_handler
 .text.net_set_icmp_handler
                0x0404fa0c       0x10 net/built-in.o
                0x0404fa0c                net_set_icmp_handler
 .text.net_set_timeout_handler
                0x0404fa1c       0x5c net/built-in.o
                0x0404fa1c                net_set_timeout_handler
 .text.net_process_received_packet
                0x0404fa78      0x300 net/built-in.o
                0x0404fa78                net_process_received_packet
 .text.net_eth_hdr_size
                0x0404fd78       0x38 net/built-in.o
                0x0404fd78                net_eth_hdr_size
 .text.net_set_ether
                0x0404fdb0       0x94 net/built-in.o
                0x0404fdb0                net_set_ether
 .text.net_update_ether
                0x0404fe44       0x78 net/built-in.o
                0x0404fe44                net_update_ether
 .text.net_set_ip_header
                0x0404febc       0x88 net/built-in.o
                0x0404febc                net_set_ip_header
 .text.net_set_udp_header
                0x0404ff44       0x84 net/built-in.o
                0x0404ff44                net_set_udp_header
 .text.net_send_udp_packet
                0x0404ffc8      0x108 net/built-in.o
                0x0404ffc8                net_send_udp_packet
 .text.copy_filename
                0x040500d0       0x44 net/built-in.o
                0x040500d0                copy_filename
 .text.on_bootfile
                0x04050114       0x34 net/built-in.o
 .text.ip_to_string
                0x04050148       0x38 net/built-in.o
                0x04050148                ip_to_string
 .text.string_to_vlan
                0x04050180       0x44 net/built-in.o
                0x04050180                string_to_vlan
 .text.on_nvlan
                0x040501c4       0x30 net/built-in.o
 .text.on_vlan  0x040501f4       0x30 net/built-in.o
 .text.rpc_lookup_reply
                0x04050224       0xb8 net/built-in.o
 .text.nfs_mount_reply
                0x040502dc       0xb0 net/built-in.o
 .text.nfs_umountall_reply
                0x0405038c       0xa0 net/built-in.o
 .text.nfs_lookup_reply
                0x0405042c      0x128 net/built-in.o
 .text.nfs3_get_attributes_offset
                0x04050554       0x14 net/built-in.o
 .text.nfs_readlink_reply
                0x04050568      0x124 net/built-in.o
 .text.basename
                0x0405068c       0x3c net/built-in.o
 .text.rpc_req  0x040506c8      0x120 net/built-in.o
 .text.nfs_umountall_req
                0x040507e8       0x84 net/built-in.o
 .text.nfs_read_reply.isra.2
                0x0405086c      0x170 net/built-in.o
 .text.nfs_readlink_req
                0x040509dc       0xcc net/built-in.o
 .text.nfs_mount_req
                0x04050aa8       0xbc net/built-in.o
 .text.nfs_read_req
                0x04050b64       0xf8 net/built-in.o
 .text.nfs_lookup_req
                0x04050c5c      0x188 net/built-in.o
 .text.nfs_send
                0x04050de4      0x154 net/built-in.o
 .text.nfs_handler
                0x04050f38      0x244 net/built-in.o
 .text.nfs_timeout_handler
                0x0405117c       0x64 net/built-in.o
 .text.nfs_start
                0x040511e0      0x174 net/built-in.o
                0x040511e0                nfs_start
 .text.ping_timeout_handler
                0x04051354       0x1c net/built-in.o
 .text.ping_start
                0x04051370      0x118 net/built-in.o
                0x04051370                ping_start
 .text.ping_receive
                0x04051488       0xdc net/built-in.o
                0x04051488                ping_receive
 .text.tftp_complete
                0x04051564       0x78 net/built-in.o
 .text.tftp_send
                0x040515dc      0x264 net/built-in.o
 .text.update_block_number
                0x04051840       0xb4 net/built-in.o
 .text.tftp_handler
                0x040518f4      0x350 net/built-in.o
 .text.tftp_timeout_handler
                0x04051c44       0x88 net/built-in.o
 .text.icmp_handler
                0x04051ccc       0x2c net/built-in.o
 .text.tftp_start
                0x04051cf8      0x464 net/built-in.o
                0x04051cf8                tftp_start
 .text.do_dm_dump_devres
                0x0405215c        0x8 test/dm/built-in.o
 .text.do_dm    0x04052164       0x74 test/dm/built-in.o
 .text.do_dm_dump_uclass
                0x040521d8       0x10 test/dm/built-in.o
 .text.do_dm_dump_all
                0x040521e8       0x10 test/dm/built-in.o
 .text.__ashldi3
                0x040521f8       0x1c arch/arm/lib/lib.a(ashldi3.o)
                0x040521f8                __ashldi3
                0x040521f8                __aeabi_llsl
 .text.__udivsi3
                0x04052214       0x9c arch/arm/lib/lib.a(lib1funcs.o)
                0x04052214                __udivsi3
                0x04052214                __aeabi_uidiv
 .text.__divsi3
                0x040522b0       0xcc arch/arm/lib/lib.a(lib1funcs.o)
                0x040522b0                __aeabi_idiv
                0x040522b0                __divsi3
 .text.__aeabi_uidivmod
                0x0405237c       0x30 arch/arm/lib/lib.a(lib1funcs.o)
                0x0405237c                __aeabi_uidivmod
                0x04052394                __aeabi_idivmod
 .text.Ldiv0    0x040523ac       0x10 arch/arm/lib/lib.a(lib1funcs.o)
 .text.__lshldi3
                0x040523bc       0x1c arch/arm/lib/lib.a(lshrdi3.o)
                0x040523bc                __aeabi_llsr
                0x040523bc                __lshrdi3
 .text.__div0   0x040523d8        0x4 arch/arm/lib/lib.a(div0.o)
                0x040523d8                __div0

.glue_7         0x040523dc        0x0
 .glue_7        0x00000000        0x0 linker stubs

.glue_7t        0x040523dc        0x0
 .glue_7t       0x00000000        0x0 linker stubs

.vfp11_veneer   0x040523dc        0x0
 .vfp11_veneer  0x00000000        0x0 linker stubs

.v4_bx          0x040523dc        0x0
 .v4_bx         0x00000000        0x0 linker stubs

.iplt           0x040523dc        0x0
 .iplt          0x00000000        0x0 arch/arm/cpu/armv7/start.o

efi_runtime_text
                0x040523dc       0x24
                0x040523dc                PROVIDE (__start_efi_runtime_text, .)
 efi_runtime_text
                0x040523dc       0x24 lib/built-in.o
                0x040523dc                efi_reset_system
                0x040523e0                efi_get_time
                0x04052400                PROVIDE (__stop_efi_runtime_text, .)
                0x04052400                . = ALIGN (0x4)

.rodata         0x04052400    0x12b85
 *(SORT(.rodata*))
 .rodata.efi_boot_services
                0x04052400       0xc8 lib/built-in.o
 .rodata        0x040524c8       0x80 arch/arm/lib/built-in.o
 .rodata        0x04052548       0x34 drivers/built-in.o
 .rodata.CSWTCH.28
                0x0405257c       0x20 common/built-in.o
 .rodata.CSWTCH.34
                0x0405259c       0x14 cmd/built-in.o
 .rodata.CSWTCH.35
                0x040525b0        0xc arch/arm/mach-zynq/built-in.o
 .rodata.CSWTCH.46
                0x040525bc       0x20 disk/built-in.o
 .rodata.CSWTCH.99
                0x040525dc       0x6c common/built-in.o
 .rodata.arasan_sdhci_ids
                0x04052648       0x10 drivers/mmc/built-in.o
 .rodata.arm_dcc_ids
                0x04052658       0x10 drivers/serial/built-in.o
 .rodata.arm_dcc_ops
                0x04052668       0x14 drivers/serial/built-in.o
 .rodata.baudrate_table
                0x0405267c       0x2c drivers/serial/built-in.o
 .rodata.bin_format
                0x040526a8       0x34 drivers/built-in.o
 .rodata.boot_os
                0x040526dc       0x60 common/built-in.o
 .rodata.ci_ep_init
                0x0405273c       0xb4 drivers/usb/gadget/built-in.o
 .rodata.crc_table
                0x040527f0      0x400 lib/built-in.o
 .rodata.desc_and_len_tbl
                0x04052bf0       0x30 cmd/built-in.o
 .rodata.dfu_state
                0x04052c20       0x2c drivers/usb/gadget/built-in.o
 .rodata.efi_con_in
                0x04052c4c        0xc lib/built-in.o
                0x04052c4c                efi_con_in
 .rodata.efi_con_out
                0x04052c58       0x28 lib/built-in.o
                0x04052c58                efi_con_out
 .rodata.efi_console_control
                0x04052c80        0xc lib/built-in.o
                0x04052c80                efi_console_control
 .rodata.efi_runtime_detach_list
                0x04052c8c       0x38 lib/built-in.o
 .rodata.ehci_zynq_ids
                0x04052cc4       0x10 drivers/usb/host/built-in.o
 .rodata.env_flags_varaccess_mask
                0x04052cd4       0x10 common/built-in.o
 .rodata.ext_csd_bits.9746
                0x04052ce4       0x14 drivers/mmc/built-in.o
 .rodata.ext_to_hostcaps.9747
                0x04052cf8       0x1c drivers/mmc/built-in.o
 .rodata.fbase  0x04052d14       0x10 drivers/mmc/built-in.o
 .rodata.fdt_errtable
                0x04052d24       0x48 lib/built-in.o
 .rodata.fpga007s
                0x04052d6c       0x1c board/xilinx/zynq/built-in.o
 .rodata.fpga010
                0x04052d88       0x1c board/xilinx/zynq/built-in.o
 .rodata.fpga012s
                0x04052da4       0x1c board/xilinx/zynq/built-in.o
 .rodata.fpga014s
                0x04052dc0       0x1c board/xilinx/zynq/built-in.o
 .rodata.fpga015
                0x04052ddc       0x1c board/xilinx/zynq/built-in.o
 .rodata.fpga020
                0x04052df8       0x1c board/xilinx/zynq/built-in.o
 .rodata.fpga030
                0x04052e14       0x1c board/xilinx/zynq/built-in.o
 .rodata.fpga035
                0x04052e30       0x1c board/xilinx/zynq/built-in.o
 .rodata.fpga045
                0x04052e4c       0x1c board/xilinx/zynq/built-in.o
 .rodata.fpga100
                0x04052e68       0x1c board/xilinx/zynq/built-in.o
 .rodata.generic_simple_bus_ids
                0x04052e84       0x18 drivers/built-in.o
 .rodata.gpio_function
                0x04052e9c       0x14 drivers/gpio/built-in.o
 .rodata.gpio_zynq_ops
                0x04052eb0       0x28 drivers/gpio/built-in.o
 .rodata.hub_id_table
                0x04052ed8       0x30 common/built-in.o
 .rodata.if_type_uclass_id
                0x04052f08       0x2c drivers/built-in.o
 .rodata.if_typename_str
                0x04052f34       0x2c drivers/built-in.o
 .rodata.mass_storage_id_table
                0x04052f60       0x30 common/built-in.o
 .rodata.mmc_blk_ops
                0x04052f90       0x10 drivers/mmc/built-in.o
 .rodata.mod_exp_ops_sw
                0x04052fa0        0x4 drivers/built-in.o
 .rodata.offsets.11262
                0x04052fa4       0x10 drivers/spi/built-in.o
 .rodata.op_adv
                0x04052fb4      0x100 cmd/built-in.o
                0x04052fb4                op_adv
 .rodata.op_table
                0x040530b4       0x68 cmd/built-in.o
 .rodata.phy_interface_strings
                0x0405311c       0x38 drivers/net/built-in.o
 .rodata.phy_interface_strings
                0x04053154       0x38 drivers/net/phy/built-in.o
 .rodata.reg_0_5_desc_tbl
                0x0405318c       0x30 cmd/built-in.o
 .rodata.reg_0_desc_tbl
                0x040531bc       0x78 cmd/built-in.o
 .rodata.reg_1_desc_tbl
                0x04053234       0xc0 cmd/built-in.o
 .rodata.reg_2_desc_tbl
                0x040532f4        0xc cmd/built-in.o
 .rodata.reg_3_desc_tbl
                0x04053300       0x24 cmd/built-in.o
 .rodata.reg_4_desc_tbl
                0x04053324       0x90 cmd/built-in.o
 .rodata.reg_5_desc_tbl
                0x040533b4       0x90 cmd/built-in.o
 .rodata.root_info
                0x04053444        0x8 drivers/built-in.o
 .rodata.sd_au_size
                0x0405344c       0x40 drivers/mmc/built-in.o
 .rodata.sdhci_ops
                0x0405348c       0x1c drivers/mmc/built-in.o
                0x0405348c                sdhci_ops
 .rodata.smbios_write_funcs
                0x040534a8       0x1c lib/built-in.o
 .rodata.spi_flash_ids
                0x040534c4      0x768 drivers/mtd/spi/built-in.o
                0x040534c4                spi_flash_ids
 .rodata.spi_flash_std_ids
                0x04053c2c       0x10 drivers/mtd/spi/built-in.o
 .rodata.spi_flash_std_ops
                0x04053c3c        0xc drivers/mtd/spi/built-in.o
 .rodata.subcmd_list
                0x04053c48       0x10 cmd/built-in.o
 .rodata.uimage_arch
                0x04053c58      0x138 common/built-in.o
 .rodata.uimage_comp
                0x04053d90       0x54 common/built-in.o
 .rodata.uimage_os
                0x04053de4       0x78 common/built-in.o
 .rodata.uimage_type
                0x04053e5c      0x180 common/built-in.o
 .rodata.usb_hub_ids
                0x04053fdc       0x10 common/built-in.o
 .rodata.usb_mass_storage_ids
                0x04053fec       0x10 common/built-in.o
 .rodata.usb_storage_ops
                0x04053ffc       0x10 common/built-in.o
 .rodata.widths.9748
                0x0405400c       0x14 drivers/mmc/built-in.o
 .rodata.zynq_gem_ids
                0x04054020       0x20 drivers/net/built-in.o
 .rodata.zynq_gem_ops
                0x04054040       0x1c drivers/net/built-in.o
 .rodata.zynq_gpio_def
                0x0405405c       0x3c drivers/gpio/built-in.o
 .rodata.zynq_gpio_ids
                0x04054098       0x18 drivers/gpio/built-in.o
 .rodata.zynq_qspi_ids
                0x040540b0       0x10 drivers/spi/built-in.o
 .rodata.zynq_qspi_ops
                0x040540c0       0x1c drivers/spi/built-in.o
 .rodata.zynq_serial_ids
                0x040540dc       0x20 drivers/serial/built-in.o
 .rodata.zynq_serial_ops
                0x040540fc       0x14 drivers/serial/built-in.o
 .rodata.zynqmp_gpio_def
                0x04054110       0x3c drivers/gpio/built-in.o
 .rodata.crc16_tab
                0x0405414c      0x200 lib/built-in.o
 .rodata.crc16_table
                0x0405434c      0x200 fs/built-in.o
 .rodata.dbase.8231
                0x0405454c       0x40 lib/built-in.o
 .rodata.dext.8232
                0x0405458c       0x40 lib/built-in.o
 .rodata.distfix
                0x040545cc       0x80 lib/built-in.o
 .rodata.lbase.8229
                0x0405464c       0x3e lib/built-in.o
 .rodata.lenfix
                0x0405468a      0x800 lib/built-in.o
 .rodata.lext.8230
                0x04054e8a       0x3e lib/built-in.o
 .rodata.order.8325
                0x04054ec8       0x26 lib/built-in.o
 .rodata        0x04054eee       0x16 cmd/built-in.o
 .rodata        0x04054f04        0x3 common/built-in.o
 .rodata        0x04054f07       0x3f drivers/usb/host/built-in.o
 .rodata        0x04054f46        0x7 net/built-in.o
 .rodata.CSWTCH.28
                0x04054f4d        0x4 arch/arm/mach-zynq/built-in.o
 .rodata.CSWTCH.66
                0x04054f51       0x16 common/built-in.o
 .rodata.__FUNCTION__.11030
                0x04054f67       0x11 drivers/usb/gadget/built-in.o
 .rodata.__FUNCTION__.8105
                0x04054f78        0xc drivers/built-in.o
 .rodata.__FUNCTION__.8119
                0x04054f84        0xc drivers/built-in.o
 .rodata.__FUNCTION__.8125
                0x04054f90        0xc drivers/built-in.o
 .rodata.__FUNCTION__.8856
                0x04054f9c       0x17 common/built-in.o
 .rodata.__FUNCTION__.9002
                0x04054fb3       0x17 common/built-in.o
 .rodata.__func__.10138
                0x04054fca        0xe drivers/net/built-in.o
 .rodata.__func__.10201
                0x04054fd8        0xc drivers/usb/gadget/built-in.o
 .rodata.__func__.10286
                0x04054fe4       0x18 drivers/built-in.o
 .rodata.__func__.10288
                0x04054ffc       0x17 drivers/usb/host/built-in.o
 .rodata.__func__.10309
                0x04055013       0x14 drivers/built-in.o
 .rodata.__func__.10427
                0x04055027       0x16 drivers/built-in.o
 .rodata.__func__.10440
                0x0405503d        0xc drivers/built-in.o
 .rodata.__func__.10445
                0x04055049       0x12 drivers/built-in.o
 .rodata.__func__.10469
                0x0405505b        0xa drivers/built-in.o
 .rodata.__func__.10492
                0x04055065        0x9 drivers/built-in.o
 .rodata.__func__.10501
                0x0405506e       0x10 drivers/built-in.o
 .rodata.__func__.10526
                0x0405507e       0x14 drivers/built-in.o
 .rodata.__func__.10533
                0x04055092        0xe drivers/usb/gadget/built-in.o
 .rodata.__func__.10544
                0x040550a0        0xe drivers/usb/gadget/built-in.o
 .rodata.__func__.10558
                0x040550ae       0x15 drivers/usb/gadget/built-in.o
 .rodata.__func__.10575
                0x040550c3        0xd drivers/usb/gadget/built-in.o
 .rodata.__func__.10608
                0x040550d0        0xd drivers/usb/gadget/built-in.o
 .rodata.__func__.10621
                0x040550dd        0xd drivers/usb/gadget/built-in.o
 .rodata.__func__.10631
                0x040550ea       0x14 drivers/usb/gadget/built-in.o
 .rodata.__func__.10661
                0x040550fe       0x10 drivers/usb/gadget/built-in.o
 .rodata.__func__.10674
                0x0405510e        0xa drivers/usb/gadget/built-in.o
 .rodata.__func__.10680
                0x04055118        0xc drivers/usb/gadget/built-in.o
 .rodata.__func__.10693
                0x04055124        0xd drivers/built-in.o
 .rodata.__func__.10705
                0x04055131        0xd cmd/built-in.o
 .rodata.__func__.10718
                0x0405513e        0xc drivers/built-in.o
 .rodata.__func__.10720
                0x0405514a       0x13 common/built-in.o
 .rodata.__func__.10727
                0x0405515d       0x12 drivers/usb/gadget/built-in.o
 .rodata.__func__.10736
                0x0405516f       0x15 drivers/built-in.o
 .rodata.__func__.10750
                0x04055184       0x18 drivers/built-in.o
 .rodata.__func__.10771
                0x0405519c       0x14 drivers/built-in.o
 .rodata.__func__.10786
                0x040551b0       0x14 drivers/built-in.o
 .rodata.__func__.11167
                0x040551c4        0xf drivers/usb/gadget/built-in.o
 .rodata.__func__.8009
                0x040551d3        0xe common/built-in.o
 .rodata.__func__.8070
                0x040551e1       0x10 common/built-in.o
 .rodata.__func__.8086
                0x040551f1        0xb common/built-in.o
 .rodata.__func__.8093
                0x040551fc        0xb common/built-in.o
 .rodata.__func__.8098
                0x04055207       0x13 drivers/built-in.o
 .rodata.__func__.8106
                0x0405521a        0xc drivers/built-in.o
 .rodata.__func__.8113
                0x04055226        0xe drivers/built-in.o
 .rodata.__func__.8120
                0x04055234        0xc drivers/built-in.o
 .rodata.__func__.8191
                0x04055240        0xe drivers/built-in.o
 .rodata.__func__.8209
                0x0405524e        0x9 drivers/built-in.o
 .rodata.__func__.8224
                0x04055257        0xc drivers/built-in.o
 .rodata.__func__.8236
                0x04055263        0xa drivers/built-in.o
 .rodata.__func__.8249
                0x0405526d        0xa drivers/built-in.o
 .rodata.__func__.8262
                0x04055277        0xa drivers/built-in.o
 .rodata.__func__.8320
                0x04055281        0xf fs/built-in.o
 .rodata.__func__.8353
                0x04055290       0x13 fs/built-in.o
 .rodata.__func__.8362
                0x040552a3       0x14 fs/built-in.o
 .rodata.__func__.8395
                0x040552b7       0x12 drivers/built-in.o
 .rodata.__func__.8422
                0x040552c9       0x13 drivers/built-in.o
 .rodata.__func__.8443
                0x040552dc        0xe cmd/built-in.o
 .rodata.__func__.8456
                0x040552ea       0x16 drivers/built-in.o
 .rodata.__func__.8474
                0x04055300       0x18 drivers/built-in.o
 .rodata.__func__.8480
                0x04055318        0xe cmd/built-in.o
 .rodata.__func__.8484
                0x04055326        0xa drivers/built-in.o
 .rodata.__func__.8515
                0x04055330        0xc drivers/built-in.o
 .rodata.__func__.8554
                0x0405533c        0xc drivers/mmc/built-in.o
 .rodata.__func__.8585
                0x04055348       0x14 drivers/mmc/built-in.o
 .rodata.__func__.8608
                0x0405535c       0x13 drivers/mmc/built-in.o
 .rodata.__func__.8637
                0x0405536f       0x10 drivers/mmc/built-in.o
 .rodata.__func__.8689
                0x0405537f        0xb drivers/mmc/built-in.o
 .rodata.__func__.8707
                0x0405538a       0x10 drivers/mmc/built-in.o
 .rodata.__func__.8733
                0x0405539a       0x18 common/built-in.o
 .rodata.__func__.8769
                0x040553b2       0x1c fs/built-in.o
 .rodata.__func__.8893
                0x040553ce        0xc lib/built-in.o
 .rodata.__func__.9165
                0x040553da        0xe drivers/built-in.o
 .rodata.__func__.9409
                0x040553e8        0xd drivers/built-in.o
 .rodata.__func__.9415
                0x040553f5       0x11 drivers/built-in.o
 .rodata.__func__.9419
                0x04055406       0x18 drivers/built-in.o
 .rodata.__func__.9423
                0x0405541e       0x18 drivers/built-in.o
 .rodata.__func__.9427
                0x04055436        0xd drivers/built-in.o
 .rodata.__func__.9431
                0x04055443       0x14 drivers/built-in.o
 .rodata.__func__.9435
                0x04055457       0x14 drivers/built-in.o
 .rodata._ctype
                0x0405546b      0x100 lib/built-in.o
                0x0405546b                _ctype
 .rodata.default_environment
                0x0405556b     0x120a common/built-in.o
                0x0405556b                default_environment
 .rodata.dfu_func
                0x04056775        0x9 drivers/usb/gadget/built-in.o
 .rodata.dfu_name
                0x0405677e       0x18 drivers/usb/gadget/built-in.o
 .rodata.digits.7886
                0x04056796       0x10 lib/built-in.o
 .rodata.efi_block_io_guid
                0x040567a6       0x10 lib/built-in.o
 .rodata.efi_guid_console_control
                0x040567b6       0x10 lib/built-in.o
                0x040567b6                efi_guid_console_control
 .rodata.efi_guid_device_path
                0x040567c6       0x10 lib/built-in.o
                0x040567c6                efi_guid_device_path
 .rodata.efi_guid_loaded_image
                0x040567d6       0x10 lib/built-in.o
                0x040567d6                efi_guid_loaded_image
 .rodata.efi_net_guid
                0x040567e6       0x10 lib/built-in.o
 .rodata.efi_pxe_guid
                0x040567f6       0x10 lib/built-in.o
 .rodata.env_flags_varaccess_rep
                0x04056806        0x5 common/built-in.o
 .rodata.env_flags_vartype_rep
                0x0405680b        0x7 common/built-in.o
 .rodata.erase_seq
                0x04056812        0x4 common/built-in.o
 .rodata.hex_asc
                0x04056816       0x11 lib/built-in.o
 .rodata.manufacturer
                0x04056827        0x7 drivers/usb/gadget/built-in.o
 .rodata.multipliers
                0x0405682e       0x10 drivers/mmc/built-in.o
 .rodata.names.8033
                0x0405683e        0x6 lib/built-in.o
 .rodata.net_bcast_ethaddr
                0x04056844        0x6 net/built-in.o
                0x04056844                net_bcast_ethaddr
 .rodata.product
                0x0405684a       0x14 drivers/usb/gadget/built-in.o
 .rodata.sha1_der_prefix
                0x0405685e        0xf lib/built-in.o
                0x0405685e                sha1_der_prefix
 .rodata.sha1_padding
                0x0405686d       0x40 lib/built-in.o
 .rodata.sha256_der_prefix
                0x040568ad       0x13 lib/built-in.o
                0x040568ad                sha256_der_prefix
 .rodata.smbios_guid
                0x040568c0       0x10 lib/built-in.o
 .rodata.str1.1
                0x040568d0      0x39e arch/arm/lib/built-in.o
                                0x3e5 (size before relaxing)
 .rodata.str1.1
                0x04056c6e      0x1be arch/arm/mach-zynq/built-in.o
 .rodata.str1.1
                0x04056e2c       0x86 board/xilinx/zynq/built-in.o
                                 0x87 (size before relaxing)
 .rodata.str1.1
                0x04056eb2     0x60c0 cmd/built-in.o
                               0x6794 (size before relaxing)
 .rodata.str1.1
                0x0405cf72     0x2e59 common/built-in.o
                               0x33af (size before relaxing)
 .rodata.str1.1
                0x0405fdcb      0x450 disk/built-in.o
                                0x47e (size before relaxing)
 .rodata.str1.1
                0x0406021b     0x1108 drivers/built-in.o
                               0x1235 (size before relaxing)
 .rodata.str1.1
                0x04061323      0x14c drivers/gpio/built-in.o
                                0x16f (size before relaxing)
 .rodata.str1.1
                0x0406146f       0x34 drivers/i2c/built-in.o
 .rodata.str1.1
                0x040614a3      0x506 drivers/mmc/built-in.o
                                0x56a (size before relaxing)
 .rodata.str1.1
                0x040619a9      0x12d drivers/mtd/built-in.o
 .rodata.str1.1
                0x04061ad6      0x4a2 drivers/mtd/spi/built-in.o
                                0x4b3 (size before relaxing)
 .rodata.str1.1
                0x04061f78      0x176 drivers/net/built-in.o
                                0x195 (size before relaxing)
 .rodata.str1.1
                0x040620ee      0x214 drivers/net/phy/built-in.o
                                0x2b5 (size before relaxing)
 .rodata.str1.1
                0x04062302       0xad drivers/serial/built-in.o
                                 0xf7 (size before relaxing)
 .rodata.str1.1
                0x040623af      0x19f drivers/spi/built-in.o
                                0x1c9 (size before relaxing)
 .rodata.str1.1
                0x0406254e      0x476 drivers/usb/gadget/built-in.o
                                0x4cf (size before relaxing)
 .rodata.str1.1
                0x040629c4      0x3a0 drivers/usb/host/built-in.o
                                0x3b6 (size before relaxing)
 .rodata.str1.1
                0x04062d64      0x179 drivers/usb/ulpi/built-in.o
 .rodata.str1.1
                0x04062edd      0xae7 fs/built-in.o
                                0xb6f (size before relaxing)
 .rodata.str1.1
                0x040639c4      0xce8 lib/built-in.o
                                0xe10 (size before relaxing)
 .rodata.str1.1
                0x040646ac      0x791 net/built-in.o
                                0x882 (size before relaxing)
 .rodata.str1.1
                0x04064e3d       0xdc test/dm/built-in.o
                                 0xe2 (size before relaxing)
 .rodata.tab_seq
                0x04064f19        0x9 common/built-in.o
 .rodata.us_direction
                0x04064f22       0x20 common/built-in.o
 .rodata.version_string
                0x04064f42       0x43 cmd/built-in.o
                0x04064f42                version_string

.hash           0x04064f88       0x2c
 .hash          0x04064f88       0x2c arch/arm/cpu/armv7/start.o

.dtb.init.rodata
                0x04064fc0     0x3b70
 .dtb.init.rodata
                0x04064fc0     0x3b70 dts/built-in.o
                0x04064fc0                __dtb_dt_begin
                0x04068b23                __dtb_dt_end
                0x04068b30                . = ALIGN (0x4)

.data           0x04068b30     0x2cac
 *(.data*)
 .data.slcr_lock
                0x04068b30        0x4 arch/arm/mach-zynq/built-in.o
 .data.bootm_help_text
                0x04068b34      0x4cf cmd/built-in.o
 *fill*         0x04069003        0x1 
 .data.cmd_bootm_sub
                0x04069004       0xfc cmd/built-in.o
 .data.source_help_text
                0x04069100       0xac cmd/built-in.o
 .data.bootefi_device_path
                0x040691ac       0x88 cmd/built-in.o
 .data.loaded_image_info_obj
                0x04069234       0x2c cmd/built-in.o
 .data.bootefi_image_path
                0x04069260       0x88 cmd/built-in.o
 .data.bootefi_help_text
                0x040692e8       0xbf cmd/built-in.o
 *fill*         0x040693a7        0x1 
 .data.bootefi_device_obj
                0x040693a8       0x2c cmd/built-in.o
 *fill*         0x040693d4        0x4 
 .data.loaded_image_info
                0x040693d8       0x60 cmd/built-in.o
 .data.bootz_help_text
                0x04069438      0x208 cmd/built-in.o
 .data.clk_help_text
                0x04069640       0x1f cmd/built-in.o
 *fill*         0x0406965f        0x1 
 .data.cmd_clk_sub
                0x04069660       0x1c cmd/built-in.o
 .data.root.8048
                0x0406967c        0x2 cmd/built-in.o
 .data.tabs.8136
                0x0406967e       0x21 cmd/built-in.o
 .data.fdt_help_text
                0x0406969f      0x6ce cmd/built-in.o
 .data.i2c_help_text
                0x04069d6d      0x37c cmd/built-in.o
 *fill*         0x0406a0e9        0x3 
 .data.cmd_i2c_sub
                0x0406a0ec      0x16c cmd/built-in.o
 .data.i2c_dp_last_length
                0x0406a258        0x4 cmd/built-in.o
 .data.do_echo  0x0406a25c        0x4 cmd/built-in.o
 .data.dp_last_length
                0x0406a260        0x4 cmd/built-in.o
 .data.curr_device
                0x0406a264        0x4 cmd/built-in.o
 .data.cmd_mmc  0x0406a268      0x118 cmd/built-in.o
 .data.usb_stor_curr_dev
                0x0406a380        0x4 cmd/built-in.o
 .data.imgextract_help_text
                0x0406a384       0xb2 cmd/built-in.o
 *fill*         0x0406a436        0x2 
 .data.cmd_spl_export_sub
                0x0406a438       0x38 cmd/built-in.o
 .data.__compound_literal.0
                0x0406a470       0x20 cmd/built-in.o
 .data.cmd_spl_sub
                0x0406a490       0x1c cmd/built-in.o
 .data.env_help_text
                0x0406a4ac      0x24f cmd/built-in.o
 *fill*         0x0406a6fb        0x1 
 .data.env_id   0x0406a6fc        0x4 cmd/built-in.o
 .data.cmd_env_sub
                0x0406a700      0x118 cmd/built-in.o
 .data.hash_algo
                0x0406a818       0x54 common/built-in.o
 .data.reserved_list
                0x0406a86c       0x84 common/built-in.o
 .data.init_sequence_f
                0x0406a8f0       0x9c common/built-in.o
 .data.init_sequence_r
                0x0406a98c       0x78 common/built-in.o
                0x0406a98c                init_sequence_r
 .data.first_call
                0x0406aa04        0x8 common/built-in.o
 .data.env_name_spec
                0x0406aa0c        0x4 common/built-in.o
                0x0406aa0c                env_name_spec
 .data.of_busses
                0x0406aa10       0x18 common/built-in.o
 .data.usb_scan_list
                0x0406aa28        0x8 common/built-in.o
 .data.env_htab
                0x0406aa30       0x10 common/built-in.o
                0x0406aa30                env_htab
 .data.av_      0x0406aa40      0x408 common/built-in.o
 .data.sbrk_base
                0x0406ae48        0x4 common/built-in.o
 .data.trim_threshold
                0x0406ae4c        0x4 common/built-in.o
 .data.crypto_algos
                0x0406ae50       0x28 common/built-in.o
                0x0406ae50                crypto_algos
 .data.checksum_algos
                0x0406ae78       0x28 common/built-in.o
                0x0406ae78                checksum_algos
 .data.stdio_names
                0x0406aea0        0xc common/built-in.o
                0x0406aea0                stdio_names
 .data.hist_cur
                0x0406aeac        0x4 common/built-in.o
 .data.next_desc
                0x0406aeb0        0x4 drivers/built-in.o
 .data.zynq_op  0x0406aeb4       0x14 drivers/built-in.o
                0x0406aeb4                zynq_op
 .data.dfu_list
                0x0406aec8        0x8 drivers/built-in.o
 .data.cmd_timeout.8607
                0x0406aed0        0x4 drivers/mmc/built-in.o
 .data.genphy_driver
                0x0406aed4       0x34 drivers/net/phy/built-in.o
 .data.phy_drivers
                0x0406af08        0x8 drivers/net/phy/built-in.o
 .data.M88E1111S_driver
                0x0406af10       0x34 drivers/net/phy/built-in.o
 .data.M88E1310_driver
                0x0406af44       0x34 drivers/net/phy/built-in.o
 .data.M88E1011S_driver
                0x0406af78       0x34 drivers/net/phy/built-in.o
 .data.M88E1118_driver
                0x0406afac       0x34 drivers/net/phy/built-in.o
 .data.M88E1518_driver
                0x0406afe0       0x34 drivers/net/phy/built-in.o
 .data.M88E1145_driver
                0x0406b014       0x34 drivers/net/phy/built-in.o
 .data.M88E1149S_driver
                0x0406b048       0x34 drivers/net/phy/built-in.o
 .data.M88E1121R_driver
                0x0406b07c       0x34 drivers/net/phy/built-in.o
 .data.M88E1118R_driver
                0x0406b0b0       0x34 drivers/net/phy/built-in.o
 .data.M88E1510_driver
                0x0406b0e4       0x34 drivers/net/phy/built-in.o
 .data.RTL8211F_driver
                0x0406b118       0x34 drivers/net/phy/built-in.o
 .data.RTL8211E_driver
                0x0406b14c       0x34 drivers/net/phy/built-in.o
 .data.RTL8211DN_driver
                0x0406b180       0x34 drivers/net/phy/built-in.o
 .data.RTL8211B_driver
                0x0406b1b4       0x34 drivers/net/phy/built-in.o
 .data.xilinxphy_driver
                0x0406b1e8       0x34 drivers/net/phy/built-in.o
 .data.ep0_desc
                0x0406b21c        0x9 drivers/usb/gadget/built-in.o
 *fill*         0x0406b225        0x3 
 .data.ci_ep_ops
                0x0406b228       0x28 drivers/usb/gadget/built-in.o
 .data.ci_udc_ops
                0x0406b250       0x24 drivers/usb/gadget/built-in.o
 .data.controller
                0x0406b274      0x190 drivers/usb/gadget/built-in.o
 .data.device_desc
                0x0406b404       0x12 drivers/usb/gadget/built-in.o
 *fill*         0x0406b416        0x2 
 .data.g_dnl_string_tab
                0x0406b418        0x8 drivers/usb/gadget/built-in.o
 .data.g_dnl_composite_strings
                0x0406b420        0x8 drivers/usb/gadget/built-in.o
 .data.g_dnl_driver
                0x0406b428       0x20 drivers/usb/gadget/built-in.o
 .data.composite_driver
                0x0406b448       0x24 drivers/usb/gadget/built-in.o
 .data.g_dnl_string_defs
                0x0406b46c       0x20 drivers/usb/gadget/built-in.o
 .data.thor_downloader_cdc_call
                0x0406b48c        0x5 drivers/usb/gadget/built-in.o
 *fill*         0x0406b491        0x3 
 .data.hs_thor_downloader_function
                0x0406b494       0x30 drivers/usb/gadget/built-in.o
 .data.thor_downloader_cdc_abstract
                0x0406b4c4        0x4 drivers/usb/gadget/built-in.o
 .data.thor_downloader_cdc_av
                0x0406b4c8        0x8 drivers/usb/gadget/built-in.o
 .data.thor_downloader_intf_int
                0x0406b4d0        0x9 drivers/usb/gadget/built-in.o
 .data.hs_int_desc
                0x0406b4d9        0x9 drivers/usb/gadget/built-in.o
 .data.fs_in_desc
                0x0406b4e2        0x9 drivers/usb/gadget/built-in.o
 .data.fs_out_desc
                0x0406b4eb        0x9 drivers/usb/gadget/built-in.o
 .data.fs_int_desc
                0x0406b4f4        0x9 drivers/usb/gadget/built-in.o
 .data.thor_downloader_cdc_union
                0x0406b4fd        0x5 drivers/usb/gadget/built-in.o
 .data.thor_iad_descriptor
                0x0406b502        0x8 drivers/usb/gadget/built-in.o
 .data.thor_downloader_cdc_header
                0x0406b50a        0x5 drivers/usb/gadget/built-in.o
 .data.hs_in_desc
                0x0406b50f        0x9 drivers/usb/gadget/built-in.o
 .data.hs_out_desc
                0x0406b518        0x9 drivers/usb/gadget/built-in.o
 .data.thor_downloader_intf_data
                0x0406b521        0x9 drivers/usb/gadget/built-in.o
 *fill*         0x0406b52a        0x2 
 .data.dfu_strings
                0x0406b52c        0x8 drivers/usb/gadget/built-in.o
 .data.dfu_intf_runtime
                0x0406b534        0x9 drivers/usb/gadget/built-in.o
 *fill*         0x0406b53d        0x3 
 .data.stringtab_dfu
                0x0406b540        0x8 drivers/usb/gadget/built-in.o
 .data.dfu_generic_strings
                0x0406b548        0x8 drivers/usb/gadget/built-in.o
 .data.dfu_runtime_descs
                0x0406b550        0x8 drivers/usb/gadget/built-in.o
 .data.stringtab_dfu_generic
                0x0406b558        0x8 drivers/usb/gadget/built-in.o
 .data.strings_dfu_generic
                0x0406b560       0x10 drivers/usb/gadget/built-in.o
 .data.ehci_usb_ops
                0x0406b570       0x20 drivers/usb/host/built-in.o
                0x0406b570                ehci_usb_ops
 .data.descriptor
                0x0406b590       0x38 drivers/usb/host/built-in.o
 .data.fstypes  0x0406b5c8       0x84 fs/built-in.o
 .data.ext4fs_indir3_blkno
                0x0406b64c        0x4 fs/built-in.o
                0x0406b64c                ext4fs_indir3_blkno
 .data.prev_bg_bitmap_index.8692
                0x0406b650        0x4 fs/built-in.o
 .data.prev_inode_bitmap_index.8716
                0x0406b654        0x4 fs/built-in.o
 .data.ext4fs_indir1_blkno
                0x0406b658        0x4 fs/built-in.o
                0x0406b658                ext4fs_indir1_blkno
 .data.ext4fs_indir2_blkno
                0x0406b65c        0x4 fs/built-in.o
                0x0406b65c                ext4fs_indir2_blkno
 .data.prev_bg_bmap_idx.8412
                0x0406b660        0x4 fs/built-in.o
 .data.prev_bg_bmap_idx.8375
                0x0406b664        0x4 fs/built-in.o
 .data.prev_bg_bmap_idx.8390
                0x0406b668        0x4 fs/built-in.o
 .data.prev_bg_bmap_idx.8447
                0x0406b66c        0x4 fs/built-in.o
 .data.first_node
                0x0406b670        0x4 fs/built-in.o
 *fill*         0x0406b674        0x4 
 .data.efi_event
                0x0406b678       0x28 lib/built-in.o
 .data.loaded_image_info_obj.9017
                0x0406b6a0       0x2c lib/built-in.o
 .data.efi_is_direct_boot
                0x0406b6cc        0x1 lib/built-in.o
 *fill*         0x0406b6cd        0x3 
 .data.efi_obj_list
                0x0406b6d0        0x8 lib/built-in.o
                0x0406b6d0                efi_obj_list
 .data.efi_runtime_mmio
                0x0406b6d8        0x8 lib/built-in.o
                0x0406b6d8                efi_runtime_mmio
 .data.lastoff.10012
                0x0406b6e0        0x4 lib/built-in.o
 .data.efi_cout_modes
                0x0406b6e4       0x24 lib/built-in.o
 .data.efi_con_mode
                0x0406b708       0x18 lib/built-in.o
 .data.efi_mem  0x0406b720        0x8 lib/built-in.o
                0x0406b720                efi_mem
 .data.sha256_padding
                0x0406b728       0x40 lib/built-in.o
 .data.first_call.8204
                0x0406b768        0x4 net/built-in.o
 .data.net_native_vlan
                0x0406b76c        0x2 net/built-in.o
                0x0406b76c                net_native_vlan
 .data.net_our_vlan
                0x0406b76e        0x2 net/built-in.o
                0x0406b76e                net_our_vlan
 .data.nfs_offset
                0x0406b770        0x4 net/built-in.o
 .data.supported_nfs_versions
                0x0406b774        0x1 net/built-in.o
 *fill*         0x0406b775        0x1 
 .data.tftp_block_size_option
                0x0406b776        0x2 net/built-in.o
 .data.tftp_timeout_count_max
                0x0406b778        0x4 net/built-in.o
                0x0406b778                tftp_timeout_count_max
 .data.timeout_ms
                0x0406b77c        0x4 net/built-in.o
 .data.tftp_block_size
                0x0406b780        0x2 net/built-in.o
 *fill*         0x0406b782        0x2 
 .data.timeout_count_max
                0x0406b784        0x4 net/built-in.o
 .data.test_commands
                0x0406b788       0x54 test/dm/built-in.o

.got            0x0406b7dc        0x0
 .got           0x00000000        0x0 arch/arm/cpu/armv7/start.o

.got.plt        0x0406b7dc        0xc
 .got.plt       0x0406b7dc        0xc arch/arm/cpu/armv7/start.o
                0x0406b7dc                _GLOBAL_OFFSET_TABLE_

.igot.plt       0x0406b7e8        0x0
 .igot.plt      0x00000000        0x0 arch/arm/cpu/armv7/start.o

.__efi_runtime_rel_start
                0x0406b7e8        0x0
 .__efi_runtime_rel_start
                0x0406b7e8        0x0 arch/arm/lib/built-in.o

.__efi_runtime_stop
                0x0406b7e8        0x0
 .__efi_runtime_stop
                0x0406b7e8        0x0 arch/arm/lib/built-in.o

.__efi_runtime_rel_stop
                0x0406b7e8        0x0
 .__efi_runtime_rel_stop
                0x0406b7e8        0x0 arch/arm/lib/built-in.o

.__efi_runtime_start
                0x0406b7e8        0x0
 .__efi_runtime_start
                0x0406b7e8        0x0 arch/arm/lib/built-in.o

efi_runtime_data
                0x0406b7e8       0xd8
                0x0406b7e8                PROVIDE (__start_efi_runtime_data, .)
 efi_runtime_data
                0x0406b7e8       0xd8 lib/built-in.o
                0x0406b7e8                systab
                0x0406b870                efi_runtime_services
                0x0406b8c0                PROVIDE (__stop_efi_runtime_data, .)
                0x0406b8c0                . = ALIGN (0x4)
                0x0406b8c0                . = .
                0x0406b8c0                . = ALIGN (0x4)

.u_boot_list    0x0406b8c0     0x1320
 *(SORT(.u_boot_list*))
 .u_boot_list_2_cmd_1
                0x0406b8c0        0x0 cmd/built-in.o
 .u_boot_list_2_cmd_1
                0x0406b8c0        0x0 common/built-in.o
 .u_boot_list_2_cmd_2_base
                0x0406b8c0       0x1c cmd/built-in.o
                0x0406b8c0                _u_boot_list_2_cmd_2_base
 .u_boot_list_2_cmd_2_bdinfo
                0x0406b8dc       0x1c cmd/built-in.o
                0x0406b8dc                _u_boot_list_2_cmd_2_bdinfo
 .u_boot_list_2_cmd_2_boot
                0x0406b8f8       0x1c cmd/built-in.o
                0x0406b8f8                _u_boot_list_2_cmd_2_boot
 .u_boot_list_2_cmd_2_bootd
                0x0406b914       0x1c cmd/built-in.o
                0x0406b914                _u_boot_list_2_cmd_2_bootd
 .u_boot_list_2_cmd_2_bootefi
                0x0406b930       0x1c cmd/built-in.o
                0x0406b930                _u_boot_list_2_cmd_2_bootefi
 .u_boot_list_2_cmd_2_bootelf
                0x0406b94c       0x1c cmd/built-in.o
                0x0406b94c                _u_boot_list_2_cmd_2_bootelf
 .u_boot_list_2_cmd_2_bootm
                0x0406b968       0x1c cmd/built-in.o
                0x0406b968                _u_boot_list_2_cmd_2_bootm
 .u_boot_list_2_cmd_2_bootp
                0x0406b984       0x1c cmd/built-in.o
                0x0406b984                _u_boot_list_2_cmd_2_bootp
 .u_boot_list_2_cmd_2_bootvx
                0x0406b9a0       0x1c cmd/built-in.o
                0x0406b9a0                _u_boot_list_2_cmd_2_bootvx
 .u_boot_list_2_cmd_2_bootz
                0x0406b9bc       0x1c cmd/built-in.o
                0x0406b9bc                _u_boot_list_2_cmd_2_bootz
 .u_boot_list_2_cmd_2_clk
                0x0406b9d8       0x1c cmd/built-in.o
                0x0406b9d8                _u_boot_list_2_cmd_2_clk
 .u_boot_list_2_cmd_2_cmp
                0x0406b9f4       0x1c cmd/built-in.o
                0x0406b9f4                _u_boot_list_2_cmd_2_cmp
 .u_boot_list_2_cmd_2_coninfo
                0x0406ba10       0x1c cmd/built-in.o
                0x0406ba10                _u_boot_list_2_cmd_2_coninfo
 .u_boot_list_2_cmd_2_cp
                0x0406ba2c       0x1c cmd/built-in.o
                0x0406ba2c                _u_boot_list_2_cmd_2_cp
 .u_boot_list_2_cmd_2_crc32
                0x0406ba48       0x1c cmd/built-in.o
                0x0406ba48                _u_boot_list_2_cmd_2_crc32
 .u_boot_list_2_cmd_2_dcache
                0x0406ba64       0x1c cmd/built-in.o
                0x0406ba64                _u_boot_list_2_cmd_2_dcache
 .u_boot_list_2_cmd_2_dfu
                0x0406ba80       0x1c cmd/built-in.o
                0x0406ba80                _u_boot_list_2_cmd_2_dfu
 .u_boot_list_2_cmd_2_dhcp
                0x0406ba9c       0x1c cmd/built-in.o
                0x0406ba9c                _u_boot_list_2_cmd_2_dhcp
 .u_boot_list_2_cmd_2_dm
                0x0406bab8       0x1c test/dm/built-in.o
                0x0406bab8                _u_boot_list_2_cmd_2_dm
 .u_boot_list_2_cmd_2_echo
                0x0406bad4       0x1c cmd/built-in.o
                0x0406bad4                _u_boot_list_2_cmd_2_echo
 .u_boot_list_2_cmd_2_editenv
                0x0406baf0       0x1c cmd/built-in.o
                0x0406baf0                _u_boot_list_2_cmd_2_editenv
 .u_boot_list_2_cmd_2_eeprom
                0x0406bb0c       0x1c cmd/built-in.o
                0x0406bb0c                _u_boot_list_2_cmd_2_eeprom
 .u_boot_list_2_cmd_2_env
                0x0406bb28       0x1c cmd/built-in.o
                0x0406bb28                _u_boot_list_2_cmd_2_env
 .u_boot_list_2_cmd_2_exit
                0x0406bb44       0x1c cmd/built-in.o
                0x0406bb44                _u_boot_list_2_cmd_2_exit
 .u_boot_list_2_cmd_2_ext2load
                0x0406bb60       0x1c cmd/built-in.o
                0x0406bb60                _u_boot_list_2_cmd_2_ext2load
 .u_boot_list_2_cmd_2_ext2ls
                0x0406bb7c       0x1c cmd/built-in.o
                0x0406bb7c                _u_boot_list_2_cmd_2_ext2ls
 .u_boot_list_2_cmd_2_ext4load
                0x0406bb98       0x1c cmd/built-in.o
                0x0406bb98                _u_boot_list_2_cmd_2_ext4load
 .u_boot_list_2_cmd_2_ext4ls
                0x0406bbb4       0x1c cmd/built-in.o
                0x0406bbb4                _u_boot_list_2_cmd_2_ext4ls
 .u_boot_list_2_cmd_2_ext4size
                0x0406bbd0       0x1c cmd/built-in.o
                0x0406bbd0                _u_boot_list_2_cmd_2_ext4size
 .u_boot_list_2_cmd_2_ext4write
                0x0406bbec       0x1c cmd/built-in.o
                0x0406bbec                _u_boot_list_2_cmd_2_ext4write
 .u_boot_list_2_cmd_2_false
                0x0406bc08       0x1c cmd/built-in.o
                0x0406bc08                _u_boot_list_2_cmd_2_false
 .u_boot_list_2_cmd_2_fatinfo
                0x0406bc24       0x1c cmd/built-in.o
                0x0406bc24                _u_boot_list_2_cmd_2_fatinfo
 .u_boot_list_2_cmd_2_fatload
                0x0406bc40       0x1c cmd/built-in.o
                0x0406bc40                _u_boot_list_2_cmd_2_fatload
 .u_boot_list_2_cmd_2_fatls
                0x0406bc5c       0x1c cmd/built-in.o
                0x0406bc5c                _u_boot_list_2_cmd_2_fatls
 .u_boot_list_2_cmd_2_fatsize
                0x0406bc78       0x1c cmd/built-in.o
                0x0406bc78                _u_boot_list_2_cmd_2_fatsize
 .u_boot_list_2_cmd_2_fatwrite
                0x0406bc94       0x1c cmd/built-in.o
                0x0406bc94                _u_boot_list_2_cmd_2_fatwrite
 .u_boot_list_2_cmd_2_fdt
                0x0406bcb0       0x1c cmd/built-in.o
                0x0406bcb0                _u_boot_list_2_cmd_2_fdt
 .u_boot_list_2_cmd_2_fpga
                0x0406bccc       0x1c cmd/built-in.o
                0x0406bccc                _u_boot_list_2_cmd_2_fpga
 .u_boot_list_2_cmd_2_fstype
                0x0406bce8       0x1c cmd/built-in.o
                0x0406bce8                _u_boot_list_2_cmd_2_fstype
 .u_boot_list_2_cmd_2_go
                0x0406bd04       0x1c cmd/built-in.o
                0x0406bd04                _u_boot_list_2_cmd_2_go
 .u_boot_list_2_cmd_2_gpio
                0x0406bd20       0x1c cmd/built-in.o
                0x0406bd20                _u_boot_list_2_cmd_2_gpio
 .u_boot_list_2_cmd_2_help
                0x0406bd3c       0x1c cmd/built-in.o
                0x0406bd3c                _u_boot_list_2_cmd_2_help
 .u_boot_list_2_cmd_2_i2c
                0x0406bd58       0x1c cmd/built-in.o
                0x0406bd58                _u_boot_list_2_cmd_2_i2c
 .u_boot_list_2_cmd_2_icache
                0x0406bd74       0x1c cmd/built-in.o
                0x0406bd74                _u_boot_list_2_cmd_2_icache
 .u_boot_list_2_cmd_2_iminfo
                0x0406bd90       0x1c cmd/built-in.o
                0x0406bd90                _u_boot_list_2_cmd_2_iminfo
 .u_boot_list_2_cmd_2_imxtract
                0x0406bdac       0x1c cmd/built-in.o
                0x0406bdac                _u_boot_list_2_cmd_2_imxtract
 .u_boot_list_2_cmd_2_itest
                0x0406bdc8       0x1c cmd/built-in.o
                0x0406bdc8                _u_boot_list_2_cmd_2_itest
 .u_boot_list_2_cmd_2_load
                0x0406bde4       0x1c cmd/built-in.o
                0x0406bde4                _u_boot_list_2_cmd_2_load
 .u_boot_list_2_cmd_2_loadb
                0x0406be00       0x1c cmd/built-in.o
                0x0406be00                _u_boot_list_2_cmd_2_loadb
 .u_boot_list_2_cmd_2_loads
                0x0406be1c       0x1c cmd/built-in.o
                0x0406be1c                _u_boot_list_2_cmd_2_loads
 .u_boot_list_2_cmd_2_loadx
                0x0406be38       0x1c cmd/built-in.o
                0x0406be38                _u_boot_list_2_cmd_2_loadx
 .u_boot_list_2_cmd_2_loady
                0x0406be54       0x1c cmd/built-in.o
                0x0406be54                _u_boot_list_2_cmd_2_loady
 .u_boot_list_2_cmd_2_loop
                0x0406be70       0x1c cmd/built-in.o
                0x0406be70                _u_boot_list_2_cmd_2_loop
 .u_boot_list_2_cmd_2_ls
                0x0406be8c       0x1c cmd/built-in.o
                0x0406be8c                _u_boot_list_2_cmd_2_ls
 .u_boot_list_2_cmd_2_md
                0x0406bea8       0x1c cmd/built-in.o
                0x0406bea8                _u_boot_list_2_cmd_2_md
 .u_boot_list_2_cmd_2_mdio
                0x0406bec4       0x1c cmd/built-in.o
                0x0406bec4                _u_boot_list_2_cmd_2_mdio
 .u_boot_list_2_cmd_2_mii
                0x0406bee0       0x1c cmd/built-in.o
                0x0406bee0                _u_boot_list_2_cmd_2_mii
 .u_boot_list_2_cmd_2_mm
                0x0406befc       0x1c cmd/built-in.o
                0x0406befc                _u_boot_list_2_cmd_2_mm
 .u_boot_list_2_cmd_2_mmc
                0x0406bf18       0x1c cmd/built-in.o
                0x0406bf18                _u_boot_list_2_cmd_2_mmc
 .u_boot_list_2_cmd_2_mmcinfo
                0x0406bf34       0x1c cmd/built-in.o
                0x0406bf34                _u_boot_list_2_cmd_2_mmcinfo
 .u_boot_list_2_cmd_2_mw
                0x0406bf50       0x1c cmd/built-in.o
                0x0406bf50                _u_boot_list_2_cmd_2_mw
 .u_boot_list_2_cmd_2_nfs
                0x0406bf6c       0x1c cmd/built-in.o
                0x0406bf6c                _u_boot_list_2_cmd_2_nfs
 .u_boot_list_2_cmd_2_nm
                0x0406bf88       0x1c cmd/built-in.o
                0x0406bf88                _u_boot_list_2_cmd_2_nm
 .u_boot_list_2_cmd_2_ping
                0x0406bfa4       0x1c cmd/built-in.o
                0x0406bfa4                _u_boot_list_2_cmd_2_ping
 .u_boot_list_2_cmd_2_printenv
                0x0406bfc0       0x1c cmd/built-in.o
                0x0406bfc0                _u_boot_list_2_cmd_2_printenv
 .u_boot_list_2_cmd_2_question_mark
                0x0406bfdc       0x1c cmd/built-in.o
                0x0406bfdc                _u_boot_list_2_cmd_2_question_mark
 .u_boot_list_2_cmd_2_reset
                0x0406bff8       0x1c cmd/built-in.o
                0x0406bff8                _u_boot_list_2_cmd_2_reset
 .u_boot_list_2_cmd_2_run
                0x0406c014       0x1c cmd/built-in.o
                0x0406c014                _u_boot_list_2_cmd_2_run
 .u_boot_list_2_cmd_2_save
                0x0406c030       0x1c cmd/built-in.o
                0x0406c030                _u_boot_list_2_cmd_2_save
 .u_boot_list_2_cmd_2_saveenv
                0x0406c04c       0x1c cmd/built-in.o
                0x0406c04c                _u_boot_list_2_cmd_2_saveenv
 .u_boot_list_2_cmd_2_setenv
                0x0406c068       0x1c cmd/built-in.o
                0x0406c068                _u_boot_list_2_cmd_2_setenv
 .u_boot_list_2_cmd_2_sf
                0x0406c084       0x1c cmd/built-in.o
                0x0406c084                _u_boot_list_2_cmd_2_sf
 .u_boot_list_2_cmd_2_showvar
                0x0406c0a0       0x1c common/built-in.o
                0x0406c0a0                _u_boot_list_2_cmd_2_showvar
 .u_boot_list_2_cmd_2_size
                0x0406c0bc       0x1c cmd/built-in.o
                0x0406c0bc                _u_boot_list_2_cmd_2_size
 .u_boot_list_2_cmd_2_sleep
                0x0406c0d8       0x1c cmd/built-in.o
                0x0406c0d8                _u_boot_list_2_cmd_2_sleep
 .u_boot_list_2_cmd_2_source
                0x0406c0f4       0x1c cmd/built-in.o
                0x0406c0f4                _u_boot_list_2_cmd_2_source
 .u_boot_list_2_cmd_2_spl
                0x0406c110       0x1c cmd/built-in.o
                0x0406c110                _u_boot_list_2_cmd_2_spl
 .u_boot_list_2_cmd_2_test
                0x0406c12c       0x1c cmd/built-in.o
                0x0406c12c                _u_boot_list_2_cmd_2_test
 .u_boot_list_2_cmd_2_tftpboot
                0x0406c148       0x1c cmd/built-in.o
                0x0406c148                _u_boot_list_2_cmd_2_tftpboot
 .u_boot_list_2_cmd_2_tftpput
                0x0406c164       0x1c cmd/built-in.o
                0x0406c164                _u_boot_list_2_cmd_2_tftpput
 .u_boot_list_2_cmd_2_thordown
                0x0406c180       0x1c cmd/built-in.o
                0x0406c180                _u_boot_list_2_cmd_2_thordown
 .u_boot_list_2_cmd_2_true
                0x0406c19c       0x1c cmd/built-in.o
                0x0406c19c                _u_boot_list_2_cmd_2_true
 .u_boot_list_2_cmd_2_usb
                0x0406c1b8       0x1c cmd/built-in.o
                0x0406c1b8                _u_boot_list_2_cmd_2_usb
 .u_boot_list_2_cmd_2_usbboot
                0x0406c1d4       0x1c cmd/built-in.o
                0x0406c1d4                _u_boot_list_2_cmd_2_usbboot
 .u_boot_list_2_cmd_2_version
                0x0406c1f0       0x1c cmd/built-in.o
                0x0406c1f0                _u_boot_list_2_cmd_2_version
 .u_boot_list_2_cmd_3
                0x0406c20c        0x0 cmd/built-in.o
 .u_boot_list_2_cmd_3
                0x0406c20c        0x0 common/built-in.o
 .u_boot_list_2_driver_1
                0x0406c20c        0x0 drivers/built-in.o
 .u_boot_list_2_driver_2_arasan_sdhci_drv
                0x0406c20c       0x44 drivers/mmc/built-in.o
                0x0406c20c                _u_boot_list_2_driver_2_arasan_sdhci_drv
 .u_boot_list_2_driver_2_ehci_zynq
                0x0406c250       0x44 drivers/usb/host/built-in.o
                0x0406c250                _u_boot_list_2_driver_2_ehci_zynq
 .u_boot_list_2_driver_2_gpio_zynq
                0x0406c294       0x44 drivers/gpio/built-in.o
                0x0406c294                _u_boot_list_2_driver_2_gpio_zynq
 .u_boot_list_2_driver_2_mmc
                0x0406c2d8       0x44 drivers/mmc/built-in.o
                0x0406c2d8                _u_boot_list_2_driver_2_mmc
 .u_boot_list_2_driver_2_mmc_blk
                0x0406c31c       0x44 drivers/mmc/built-in.o
                0x0406c31c                _u_boot_list_2_driver_2_mmc_blk
 .u_boot_list_2_driver_2_mod_exp_sw
                0x0406c360       0x44 drivers/built-in.o
                0x0406c360                _u_boot_list_2_driver_2_mod_exp_sw
 .u_boot_list_2_driver_2_root_driver
                0x0406c3a4       0x44 drivers/built-in.o
                0x0406c3a4                _u_boot_list_2_driver_2_root_driver
 .u_boot_list_2_driver_2_serial_dcc
                0x0406c3e8       0x44 drivers/serial/built-in.o
                0x0406c3e8                _u_boot_list_2_driver_2_serial_dcc
 .u_boot_list_2_driver_2_serial_zynq
                0x0406c42c       0x44 drivers/serial/built-in.o
                0x0406c42c                _u_boot_list_2_driver_2_serial_zynq
 .u_boot_list_2_driver_2_simple_bus_drv
                0x0406c470       0x44 drivers/built-in.o
                0x0406c470                _u_boot_list_2_driver_2_simple_bus_drv
 .u_boot_list_2_driver_2_spi_flash_std
                0x0406c4b4       0x44 drivers/mtd/spi/built-in.o
                0x0406c4b4                _u_boot_list_2_driver_2_spi_flash_std
 .u_boot_list_2_driver_2_spi_generic_drv
                0x0406c4f8       0x44 drivers/spi/built-in.o
                0x0406c4f8                _u_boot_list_2_driver_2_spi_generic_drv
 .u_boot_list_2_driver_2_usb_dev_generic_drv
                0x0406c53c       0x44 drivers/usb/host/built-in.o
                0x0406c53c                _u_boot_list_2_driver_2_usb_dev_generic_drv
 .u_boot_list_2_driver_2_usb_generic_hub
                0x0406c580       0x44 common/built-in.o
                0x0406c580                _u_boot_list_2_driver_2_usb_generic_hub
 .u_boot_list_2_driver_2_usb_mass_storage
                0x0406c5c4       0x44 common/built-in.o
                0x0406c5c4                _u_boot_list_2_driver_2_usb_mass_storage
 .u_boot_list_2_driver_2_usb_storage_blk
                0x0406c608       0x44 common/built-in.o
                0x0406c608                _u_boot_list_2_driver_2_usb_storage_blk
 .u_boot_list_2_driver_2_zynq_gem
                0x0406c64c       0x44 drivers/net/built-in.o
                0x0406c64c                _u_boot_list_2_driver_2_zynq_gem
 .u_boot_list_2_driver_2_zynq_qspi
                0x0406c690       0x44 drivers/spi/built-in.o
                0x0406c690                _u_boot_list_2_driver_2_zynq_qspi
 .u_boot_list_2_driver_3
                0x0406c6d4        0x0 drivers/built-in.o
 .u_boot_list_2_driver_info_1
                0x0406c6d4        0x0 drivers/built-in.o
 .u_boot_list_2_driver_info_2_mod_exp_sw
                0x0406c6d4        0x8 drivers/built-in.o
                0x0406c6d4                _u_boot_list_2_driver_info_2_mod_exp_sw
 .u_boot_list_2_driver_info_3
                0x0406c6dc        0x0 drivers/built-in.o
 .u_boot_list_2_env_clbk_1
                0x0406c6dc        0x0 common/built-in.o
 .u_boot_list_2_env_clbk_2_baudrate
                0x0406c6dc        0x8 drivers/serial/built-in.o
                0x0406c6dc                _u_boot_list_2_env_clbk_2_baudrate
 .u_boot_list_2_env_clbk_2_bootfile
                0x0406c6e4        0x8 net/built-in.o
                0x0406c6e4                _u_boot_list_2_env_clbk_2_bootfile
 .u_boot_list_2_env_clbk_2_callbacks
                0x0406c6ec        0x8 common/built-in.o
                0x0406c6ec                _u_boot_list_2_env_clbk_2_callbacks
 .u_boot_list_2_env_clbk_2_console
                0x0406c6f4        0x8 common/built-in.o
                0x0406c6f4                _u_boot_list_2_env_clbk_2_console
 .u_boot_list_2_env_clbk_2_ethaddr
                0x0406c6fc        0x8 net/built-in.o
                0x0406c6fc                _u_boot_list_2_env_clbk_2_ethaddr
 .u_boot_list_2_env_clbk_2_flags
                0x0406c704        0x8 common/built-in.o
                0x0406c704                _u_boot_list_2_env_clbk_2_flags
 .u_boot_list_2_env_clbk_2_gatewayip
                0x0406c70c        0x8 net/built-in.o
                0x0406c70c                _u_boot_list_2_env_clbk_2_gatewayip
 .u_boot_list_2_env_clbk_2_ipaddr
                0x0406c714        0x8 net/built-in.o
                0x0406c714                _u_boot_list_2_env_clbk_2_ipaddr
 .u_boot_list_2_env_clbk_2_loadaddr
                0x0406c71c        0x8 common/built-in.o
                0x0406c71c                _u_boot_list_2_env_clbk_2_loadaddr
 .u_boot_list_2_env_clbk_2_netmask
                0x0406c724        0x8 net/built-in.o
                0x0406c724                _u_boot_list_2_env_clbk_2_netmask
 .u_boot_list_2_env_clbk_2_nvlan
                0x0406c72c        0x8 net/built-in.o
                0x0406c72c                _u_boot_list_2_env_clbk_2_nvlan
 .u_boot_list_2_env_clbk_2_serverip
                0x0406c734        0x8 net/built-in.o
                0x0406c734                _u_boot_list_2_env_clbk_2_serverip
 .u_boot_list_2_env_clbk_2_vlan
                0x0406c73c        0x8 net/built-in.o
                0x0406c73c                _u_boot_list_2_env_clbk_2_vlan
 .u_boot_list_2_env_clbk_3
                0x0406c744        0x0 common/built-in.o
 .u_boot_list_2_fit_loadable_1
                0x0406c744        0x0 common/built-in.o
 .u_boot_list_2_fit_loadable_3
                0x0406c744        0x0 common/built-in.o
 .u_boot_list_2_g_dnl_bind_callbacks_1
                0x0406c744        0x0 drivers/usb/gadget/built-in.o
 .u_boot_list_2_g_dnl_bind_callbacks_2___usb_function_name_usb_dnl_dfu
                0x0406c744        0x8 drivers/usb/gadget/built-in.o
                0x0406c744                _u_boot_list_2_g_dnl_bind_callbacks_2___usb_function_name_usb_dnl_dfu
 .u_boot_list_2_g_dnl_bind_callbacks_2___usb_function_name_usb_dnl_thor
                0x0406c74c        0x8 drivers/usb/gadget/built-in.o
                0x0406c74c                _u_boot_list_2_g_dnl_bind_callbacks_2___usb_function_name_usb_dnl_thor
 .u_boot_list_2_g_dnl_bind_callbacks_3
                0x0406c754        0x0 drivers/usb/gadget/built-in.o
 .u_boot_list_2_i2c_1
                0x0406c754        0x0 cmd/built-in.o
 .u_boot_list_2_i2c_1
                0x0406c754        0x0 drivers/i2c/built-in.o
 .u_boot_list_2_i2c_2_zynq_0
                0x0406c754       0x2c drivers/i2c/built-in.o
                0x0406c754                _u_boot_list_2_i2c_2_zynq_0
 .u_boot_list_2_i2c_3
                0x0406c780        0x0 cmd/built-in.o
 .u_boot_list_2_i2c_3
                0x0406c780        0x0 drivers/i2c/built-in.o
 .u_boot_list_2_part_driver_1
                0x0406c780        0x0 disk/built-in.o
 .u_boot_list_2_part_driver_2_dos
                0x0406c780       0x18 disk/built-in.o
                0x0406c780                _u_boot_list_2_part_driver_2_dos
 .u_boot_list_2_part_driver_3
                0x0406c798        0x0 disk/built-in.o
 .u_boot_list_2_uclass_1
                0x0406c798        0x0 drivers/built-in.o
 .u_boot_list_2_uclass_2_blk
                0x0406c798       0x48 drivers/built-in.o
                0x0406c798                _u_boot_list_2_uclass_2_blk
 .u_boot_list_2_uclass_2_eth
                0x0406c7e0       0x48 net/built-in.o
                0x0406c7e0                _u_boot_list_2_uclass_2_eth
 .u_boot_list_2_uclass_2_gpio
                0x0406c828       0x48 drivers/gpio/built-in.o
                0x0406c828                _u_boot_list_2_uclass_2_gpio
 .u_boot_list_2_uclass_2_mmc
                0x0406c870       0x48 drivers/mmc/built-in.o
                0x0406c870                _u_boot_list_2_uclass_2_mmc
 .u_boot_list_2_uclass_2_mod_exp
                0x0406c8b8       0x48 drivers/built-in.o
                0x0406c8b8                _u_boot_list_2_uclass_2_mod_exp
 .u_boot_list_2_uclass_2_root
                0x0406c900       0x48 drivers/built-in.o
                0x0406c900                _u_boot_list_2_uclass_2_root
 .u_boot_list_2_uclass_2_serial
                0x0406c948       0x48 drivers/serial/built-in.o
                0x0406c948                _u_boot_list_2_uclass_2_serial
 .u_boot_list_2_uclass_2_simple_bus
                0x0406c990       0x48 drivers/built-in.o
                0x0406c990                _u_boot_list_2_uclass_2_simple_bus
 .u_boot_list_2_uclass_2_spi
                0x0406c9d8       0x48 drivers/spi/built-in.o
                0x0406c9d8                _u_boot_list_2_uclass_2_spi
 .u_boot_list_2_uclass_2_spi_flash
                0x0406ca20       0x48 drivers/mtd/spi/built-in.o
                0x0406ca20                _u_boot_list_2_uclass_2_spi_flash
 .u_boot_list_2_uclass_2_spi_generic
                0x0406ca68       0x48 drivers/spi/built-in.o
                0x0406ca68                _u_boot_list_2_uclass_2_spi_generic
 .u_boot_list_2_uclass_2_usb
                0x0406cab0       0x48 drivers/usb/host/built-in.o
                0x0406cab0                _u_boot_list_2_uclass_2_usb
 .u_boot_list_2_uclass_2_usb_dev_generic
                0x0406caf8       0x48 drivers/usb/host/built-in.o
                0x0406caf8                _u_boot_list_2_uclass_2_usb_dev_generic
 .u_boot_list_2_uclass_2_usb_hub
                0x0406cb40       0x48 common/built-in.o
                0x0406cb40                _u_boot_list_2_uclass_2_usb_hub
 .u_boot_list_2_uclass_2_usb_mass_storage
                0x0406cb88       0x48 common/built-in.o
                0x0406cb88                _u_boot_list_2_uclass_2_usb_mass_storage
 .u_boot_list_2_uclass_3
                0x0406cbd0        0x0 drivers/built-in.o
 .u_boot_list_2_usb_driver_entry_1
                0x0406cbd0        0x0 drivers/usb/host/built-in.o
 .u_boot_list_2_usb_driver_entry_2_usb_generic_hub
                0x0406cbd0        0x8 common/built-in.o
                0x0406cbd0                _u_boot_list_2_usb_driver_entry_2_usb_generic_hub
 .u_boot_list_2_usb_driver_entry_2_usb_mass_storage
                0x0406cbd8        0x8 common/built-in.o
                0x0406cbd8                _u_boot_list_2_usb_driver_entry_2_usb_mass_storage
 .u_boot_list_2_usb_driver_entry_3
                0x0406cbe0        0x0 drivers/usb/host/built-in.o
                0x0406cbe0                . = ALIGN (0x4)

.image_copy_end
                0x0406cbe0        0x0
 *(.__image_copy_end)
 .__image_copy_end
                0x0406cbe0        0x0 arch/arm/lib/built-in.o

.rel_dyn_start  0x0406cbe0        0x0
 *(.__rel_dyn_start)
 .__rel_dyn_start
                0x0406cbe0        0x0 arch/arm/lib/built-in.o

.rel.dyn        0x0406cbe0     0xb640
 *(.rel*)
 .rel.got       0x00000000        0x0 arch/arm/cpu/armv7/start.o
 .rel.plt       0x00000000        0x0 arch/arm/cpu/armv7/start.o
 .rel.iplt      0x00000000        0x0 arch/arm/cpu/armv7/start.o
 .rel.text      0x0406cbe0       0x20 arch/arm/cpu/armv7/start.o
 .rel.vectors   0x0406cc00       0x38 arch/arm/cpu/armv7/start.o
 .rel.text.relocate_vectors
                0x0406cc38       0x20 arch/arm/cpu/armv7/start.o
 .rel.text.boot_prep_linux
                0x0406cc58       0x18 arch/arm/cpu/armv7/start.o
 .rel.text.boot_jump_linux
                0x0406cc70       0x28 arch/arm/cpu/armv7/start.o
 .rel.text.boot_prep_vxworks
                0x0406cc98       0x10 arch/arm/cpu/armv7/start.o
 .rel.text.interrupt_init
                0x0406cca8        0x8 arch/arm/cpu/armv7/start.o
 .rel.text.bad_mode
                0x0406ccb0        0x8 arch/arm/cpu/armv7/start.o
 .rel.text.show_regs
                0x0406ccb8       0x60 arch/arm/cpu/armv7/start.o
 .rel.text.do_undefined_instruction
                0x0406cd18        0x8 arch/arm/cpu/armv7/start.o
 .rel.text.do_software_interrupt
                0x0406cd20        0x8 arch/arm/cpu/armv7/start.o
 .rel.text.do_prefetch_abort
                0x0406cd28        0x8 arch/arm/cpu/armv7/start.o
 .rel.text.do_data_abort
                0x0406cd30        0x8 arch/arm/cpu/armv7/start.o
 .rel.text.do_not_used
                0x0406cd38        0x8 arch/arm/cpu/armv7/start.o
 .rel.text.do_fiq
                0x0406cd40        0x8 arch/arm/cpu/armv7/start.o
 .rel.text.do_irq
                0x0406cd48        0x8 arch/arm/cpu/armv7/start.o
 .rel.text.do_reset
                0x0406cd50        0x8 arch/arm/cpu/armv7/start.o
 .rel.text.enable_caches
                0x00000000        0x0 arch/arm/cpu/armv7/start.o
 .rel.text.check_cache_range
                0x0406cd58        0x8 arch/arm/cpu/armv7/start.o
 .rel.rodata    0x0406cd60      0x158 arch/arm/cpu/armv7/start.o
 .rel.text.zynq_ddrc_init
                0x0406ceb8       0x10 arch/arm/cpu/armv7/start.o
 .rel.text.zynq_slcr_lock
                0x0406cec8        0x8 arch/arm/cpu/armv7/start.o
 .rel.text.zynq_slcr_unlock
                0x0406ced0        0x8 arch/arm/cpu/armv7/start.o
 .rel.text.zynq_slcr_gem_clk_setup
                0x0406ced8        0x8 arch/arm/cpu/armv7/start.o
 .rel.text.zynq_slcr_get_mio_pin_status
                0x00000000        0x0 arch/arm/cpu/armv7/start.o
 .rel.text.ddr2x_get_rate
                0x0406cee0        0x8 arch/arm/cpu/armv7/start.o
 .rel.text.ddr3x_get_rate
                0x0406cee8        0x8 arch/arm/cpu/armv7/start.o
 .rel.text.zynq_clk_periph_get_rate
                0x0406cef0        0x8 arch/arm/cpu/armv7/start.o
 .rel.text.zynq_clk_periph_set_rate
                0x0406cef8        0x8 arch/arm/cpu/armv7/start.o
 .rel.text.zynq_clk_register_periph_clk
                0x0406cf00       0x18 arch/arm/cpu/armv7/start.o
 .rel.text.zynq_clk_early_init
                0x0406cf18        0x8 arch/arm/cpu/armv7/start.o
 .rel.text.get_uart_clk
                0x0406cf20       0x10 arch/arm/cpu/armv7/start.o
 .rel.text.set_cpu_clk_info
                0x0406cf30      0x208 arch/arm/cpu/armv7/start.o
 .rel.text.zynq_clk_get_rate
                0x00000000        0x0 arch/arm/cpu/armv7/start.o
 .rel.text.zynq_clk_set_rate
                0x0406d138        0x8 arch/arm/cpu/armv7/start.o
 .rel.text.zynq_clk_get_name
                0x00000000        0x0 arch/arm/cpu/armv7/start.o
 .rel.text.soc_clk_dump
                0x0406d140       0x18 arch/arm/cpu/armv7/start.o
 .rel.rodata.mio_periphs
                0x00000000        0x0 arch/arm/cpu/armv7/start.o
 .rel.text.board_init
                0x0406d158      0x130 arch/arm/cpu/armv7/start.o
 .rel.text.board_late_init
                0x0406d288       0x68 arch/arm/cpu/armv7/start.o
 .rel.text.checkboard
                0x0406d2f0        0x8 arch/arm/cpu/armv7/start.o
 .rel.rodata.fpga015
                0x0406d2f8       0x10 arch/arm/cpu/armv7/start.o
 .rel.rodata.fpga014s
                0x0406d308       0x10 arch/arm/cpu/armv7/start.o
 .rel.rodata.fpga012s
                0x0406d318       0x10 arch/arm/cpu/armv7/start.o
 .rel.rodata.fpga030
                0x0406d328       0x10 arch/arm/cpu/armv7/start.o
 .rel.rodata.fpga020
                0x0406d338       0x10 arch/arm/cpu/armv7/start.o
 .rel.rodata.fpga100
                0x0406d348       0x10 arch/arm/cpu/armv7/start.o
 .rel.rodata.fpga035
                0x0406d358       0x10 arch/arm/cpu/armv7/start.o
 .rel.rodata.fpga045
                0x0406d368       0x10 arch/arm/cpu/armv7/start.o
 .rel.rodata.fpga007s
                0x0406d378       0x10 arch/arm/cpu/armv7/start.o
 .rel.rodata.fpga010
                0x0406d388       0x10 arch/arm/cpu/armv7/start.o
 .rel.text.do_go
                0x0406d398       0x10 arch/arm/cpu/armv7/start.o
 .rel.text.do_bootm
                0x0406d3a8       0x18 arch/arm/cpu/armv7/start.o
 .rel.text.do_bootd
                0x0406d3c0        0x8 arch/arm/cpu/armv7/start.o
 .rel.text.image_info
                0x0406d3c8       0x58 arch/arm/cpu/armv7/start.o
 .rel.text.do_iminfo
                0x0406d420        0x8 arch/arm/cpu/armv7/start.o
 .rel.text.bootm_maybe_autostart
                0x0406d428       0x20 arch/arm/cpu/armv7/start.o
 .rel.text.do_help
                0x0406d448       0x10 arch/arm/cpu/armv7/start.o
 .rel.text.do_version
                0x0406d458       0x20 arch/arm/cpu/armv7/start.o
 .rel.text.source
                0x0406d478       0x68 arch/arm/cpu/armv7/start.o
 .rel.text.do_source
                0x0406d4e0       0x10 arch/arm/cpu/armv7/start.o
 .rel.text.print_num
                0x0406d4f0        0x8 arch/arm/cpu/armv7/start.o
 .rel.text.do_bdinfo
                0x0406d4f8       0x78 arch/arm/cpu/armv7/start.o
 .rel.text.bootefi_open_dp
                0x0406d570        0x8 arch/arm/cpu/armv7/start.o
 .rel.text.do_bootefi_exec
                0x0406d578       0x50 arch/arm/cpu/armv7/start.o
 .rel.text.do_bootefi
                0x0406d5c8       0x10 arch/arm/cpu/armv7/start.o
 .rel.text.efi_set_bootdev
                0x0406d5d8       0x30 arch/arm/cpu/armv7/start.o
 .rel.text.bootz_setup
                0x00000000        0x0 arch/arm/cpu/armv7/start.o
 .rel.text.do_bootz
                0x0406d608       0x10 arch/arm/cpu/armv7/start.o
 .rel.text.parse_argv
                0x0406d618       0x18 arch/arm/cpu/armv7/start.o
 .rel.text.invalidate_icache_all
                0x00000000        0x0 arch/arm/cpu/armv7/start.o
 .rel.text.do_icache
                0x0406d630       0x18 arch/arm/cpu/armv7/start.o
 .rel.text.flush_dcache_all
                0x00000000        0x0 arch/arm/cpu/armv7/start.o
 .rel.text.do_dcache
                0x0406d648       0x18 arch/arm/cpu/armv7/start.o
 .rel.text.do_clk
                0x0406d660        0x8 arch/arm/cpu/armv7/start.o
 .rel.text.do_coninfo
                0x0406d668       0x28 arch/arm/cpu/armv7/start.o
 .rel.text.do_echo
                0x0406d690        0x8 arch/arm/cpu/armv7/start.o
 .rel.text.do_eeprom
                0x0406d698       0x20 arch/arm/cpu/armv7/start.o
 .rel.text.valid_elf_image
                0x0406d6b8       0x10 arch/arm/cpu/armv7/start.o
 .rel.text.do_bootelf
                0x0406d6c8       0x28 arch/arm/cpu/armv7/start.o
 .rel.text.do_bootvx
                0x0406d6f0       0xe0 arch/arm/cpu/armv7/start.o
 .rel.text.do_fat_fsinfo
                0x0406d7d0       0x10 arch/arm/cpu/armv7/start.o
 .rel.text.do_fat_fswrite
                0x0406d7e0       0x18 arch/arm/cpu/armv7/start.o
 .rel.text.fdt_valid
                0x0406d7f8       0x28 arch/arm/cpu/armv7/start.o
 .rel.text.is_printable_string
                0x0406d820        0x8 arch/arm/cpu/armv7/start.o
 .rel.text.print_data
                0x0406d828       0x58 arch/arm/cpu/armv7/start.o
 .rel.text.set_working_fdt_addr
                0x0406d880       0x10 arch/arm/cpu/armv7/start.o
 .rel.text.do_fdt
                0x0406d890      0x260 arch/arm/cpu/armv7/start.o
 .rel.text.do_fpga
                0x0406daf0      0x130 arch/arm/cpu/armv7/start.o
 .rel.text.do_load_wrapper
                0x0406dc20        0x8 arch/arm/cpu/armv7/start.o
 .rel.text.gpio_get_description
                0x0406dc28       0x18 arch/arm/cpu/armv7/start.o
 .rel.text.do_gpio
                0x0406dc40       0x50 arch/arm/cpu/armv7/start.o
 .rel.text.do_i2c
                0x0406dc90        0x8 arch/arm/cpu/armv7/start.o
 .rel.text.do_i2c_bus_speed
                0x0406dc98       0x18 arch/arm/cpu/armv7/start.o
 .rel.text.do_i2c_probe
                0x0406dcb0       0x10 arch/arm/cpu/armv7/start.o
 .rel.text.do_i2c_bus_num
                0x0406dcc0       0x30 arch/arm/cpu/armv7/start.o
 .rel.text.do_i2c_show_bus
                0x0406dcf0       0x28 arch/arm/cpu/armv7/start.o
 .rel.text.do_i2c_crc
                0x0406dd18       0x20 arch/arm/cpu/armv7/start.o
 .rel.text.do_i2c_read
                0x0406dd38       0x10 arch/arm/cpu/armv7/start.o
 .rel.text.do_i2c_md
                0x0406dd48       0x58 arch/arm/cpu/armv7/start.o
 .rel.text.do_i2c_mw
                0x0406dda0       0x10 arch/arm/cpu/armv7/start.o
 .rel.text.do_i2c_write
                0x0406ddb0       0x18 arch/arm/cpu/armv7/start.o
 .rel.text.mod_i2c_mem.isra.3
                0x0406ddc8       0x60 arch/arm/cpu/armv7/start.o
 .rel.text.do_i2c_loop
                0x0406de28       0x10 arch/arm/cpu/armv7/start.o
 .rel.text.binary_test
                0x0406de38       0x70 arch/arm/cpu/armv7/start.o
 .rel.text.do_itest
                0x0406dea8       0x40 arch/arm/cpu/armv7/start.o
 .rel.text.bin_data_init
                0x0406dee8       0x18 arch/arm/cpu/armv7/start.o
 .rel.text.k_data_save
                0x0406df00       0x30 arch/arm/cpu/armv7/start.o
 .rel.text.k_data_restore
                0x0406df30       0x30 arch/arm/cpu/armv7/start.o
 .rel.text.load_serial_ymodem
                0x0406df60       0x20 arch/arm/cpu/armv7/start.o
 .rel.text.bin_data_char
                0x0406df80       0x10 arch/arm/cpu/armv7/start.o
 .rel.text.chk1.constprop.1
                0x0406df90        0x8 arch/arm/cpu/armv7/start.o
 .rel.text.s1_sendpacket.constprop.2
                0x0406df98       0x18 arch/arm/cpu/armv7/start.o
 .rel.text.load_serial
                0x0406dfb0       0x68 arch/arm/cpu/armv7/start.o
 .rel.text.do_load_serial
                0x0406e018       0x30 arch/arm/cpu/armv7/start.o
 .rel.text.do_load_serial_bin
                0x0406e048       0xe8 arch/arm/cpu/armv7/start.o
 .rel.text.do_mem_mw
                0x0406e130        0x8 arch/arm/cpu/armv7/start.o
 .rel.text.do_mem_md
                0x0406e138       0x20 arch/arm/cpu/armv7/start.o
 .rel.text.do_mem_cmp
                0x0406e158       0x38 arch/arm/cpu/armv7/start.o
 .rel.text.do_mem_base
                0x0406e190       0x10 arch/arm/cpu/armv7/start.o
 .rel.text.do_mem_cp
                0x0406e1a0       0x10 arch/arm/cpu/armv7/start.o
 .rel.text.do_mem_crc
                0x0406e1b0        0x8 arch/arm/cpu/armv7/start.o
 .rel.text.mod_mem.isra.2
                0x0406e1b8       0x48 arch/arm/cpu/armv7/start.o
 .rel.text.do_mii
                0x0406e200      0x160 arch/arm/cpu/armv7/start.o
 .rel.text.do_mdio
                0x0406e360       0x70 arch/arm/cpu/armv7/start.o
 .rel.text.do_mmcops
                0x0406e3d0       0x18 arch/arm/cpu/armv7/start.o
 .rel.text.init_mmc_device
                0x0406e3e8        0x8 arch/arm/cpu/armv7/start.o
 .rel.text.do_mmc_rescan
                0x0406e3f0        0x8 arch/arm/cpu/armv7/start.o
 .rel.text.do_mmc_hwpartition
                0x0406e3f8       0xb0 arch/arm/cpu/armv7/start.o
 .rel.text.do_mmc_dev
                0x0406e4a8       0x38 arch/arm/cpu/armv7/start.o
 .rel.text.do_mmc_part
                0x0406e4e0       0x10 arch/arm/cpu/armv7/start.o
 .rel.text.do_mmc_erase
                0x0406e4f0       0x30 arch/arm/cpu/armv7/start.o
 .rel.text.do_mmc_write
                0x0406e520       0x30 arch/arm/cpu/armv7/start.o
 .rel.text.do_mmc_read
                0x0406e550       0x28 arch/arm/cpu/armv7/start.o
 .rel.text.do_mmcinfo
                0x0406e578       0xf8 arch/arm/cpu/armv7/start.o
 .rel.text.do_mmc_setdsr
                0x0406e670       0x28 arch/arm/cpu/armv7/start.o
 .rel.text.netboot_common
                0x0406e698       0xd0 arch/arm/cpu/armv7/start.o
 .rel.text.do_ping
                0x0406e768       0x18 arch/arm/cpu/armv7/start.o
 .rel.text.do_spi_flash
                0x0406e780       0xe0 arch/arm/cpu/armv7/start.o
 .rel.text.do_test
                0x0406e860       0x70 arch/arm/cpu/armv7/start.o
 .rel.text.usb_get_class_desc
                0x0406e8d0       0x50 arch/arm/cpu/armv7/start.o
 .rel.text.usb_display_class_sub
                0x0406e920       0xc8 arch/arm/cpu/armv7/start.o
 .rel.text.usb_show_tree_graph
                0x0406e9e8       0x48 arch/arm/cpu/armv7/start.o
 .rel.text.usb_display_string
                0x0406ea30        0x8 arch/arm/cpu/armv7/start.o
 .rel.text.usb_display_config
                0x0406ea38       0xa8 arch/arm/cpu/armv7/start.o
 .rel.text.do_usbboot
                0x0406eae0        0x8 arch/arm/cpu/armv7/start.o
 .rel.text.usb_display_desc.part.3
                0x0406eae8       0x38 arch/arm/cpu/armv7/start.o
 .rel.text.do_usb_start
                0x0406eb20        0x8 arch/arm/cpu/armv7/start.o
 .rel.text.usb_show_tree
                0x0406eb28        0x8 arch/arm/cpu/armv7/start.o
 .rel.text.do_usb
                0x0406eb30      0x178 arch/arm/cpu/armv7/start.o
 .rel.text.common_diskboot
                0x0406eca8       0x38 arch/arm/cpu/armv7/start.o
 .rel.text.do_thor_down
                0x0406ece0       0x38 arch/arm/cpu/armv7/start.o
 .rel.text.do_imgextract
                0x0406ed18       0xc8 arch/arm/cpu/armv7/start.o
 .rel.text.do_spl
                0x0406ede0       0x48 arch/arm/cpu/armv7/start.o
 .rel.text.do_dfu
                0x0406ee28       0x10 arch/arm/cpu/armv7/start.o
 .rel.text.do_env_delete
                0x0406ee38       0x10 arch/arm/cpu/armv7/start.o
 .rel.text.do_env_exists
                0x0406ee48        0x8 arch/arm/cpu/armv7/start.o
 .rel.text.do_env_save
                0x0406ee50       0x10 arch/arm/cpu/armv7/start.o
 .rel.text.do_env
                0x0406ee60        0x8 arch/arm/cpu/armv7/start.o
 .rel.text.env_print
                0x0406ee68       0x18 arch/arm/cpu/armv7/start.o
 .rel.text.do_env_print
                0x0406ee80       0x10 arch/arm/cpu/armv7/start.o
 .rel.text.do_env_import
                0x0406ee90       0x58 arch/arm/cpu/armv7/start.o
 .rel.text.do_env_default
                0x0406eee8        0x8 arch/arm/cpu/armv7/start.o
 .rel.text._do_env_set.isra.1
                0x0406eef0       0x30 arch/arm/cpu/armv7/start.o
 .rel.text.get_env_id
                0x0406ef20        0x8 arch/arm/cpu/armv7/start.o
 .rel.text.setenv
                0x0406ef28        0x8 arch/arm/cpu/armv7/start.o
 .rel.text.setenv_hex
                0x0406ef30        0x8 arch/arm/cpu/armv7/start.o
 .rel.text.do_env_export
                0x0406ef38       0x40 arch/arm/cpu/armv7/start.o
 .rel.text.getenv_f
                0x0406ef78        0x8 arch/arm/cpu/armv7/start.o
 .rel.text.getenv
                0x0406ef80        0x8 arch/arm/cpu/armv7/start.o
 .rel.text.do_env_edit.part.3
                0x0406ef88       0x18 arch/arm/cpu/armv7/start.o
 .rel.rodata.op_table
                0x0406efa0       0x68 arch/arm/cpu/armv7/start.o
 .rel.rodata.reg_4_desc_tbl
                0x0406f008       0x60 arch/arm/cpu/armv7/start.o
 .rel.rodata.desc_and_len_tbl
                0x0406f068       0x30 arch/arm/cpu/armv7/start.o
 .rel.rodata.reg_5_desc_tbl
                0x0406f098       0x60 arch/arm/cpu/armv7/start.o
 .rel.rodata.reg_2_desc_tbl
                0x0406f0f8        0x8 arch/arm/cpu/armv7/start.o
 .rel.rodata.reg_0_5_desc_tbl
                0x0406f100       0x30 arch/arm/cpu/armv7/start.o
 .rel.rodata.reg_3_desc_tbl
                0x0406f130       0x18 arch/arm/cpu/armv7/start.o
 .rel.rodata.reg_0_desc_tbl
                0x0406f148       0x50 arch/arm/cpu/armv7/start.o
 .rel.rodata.reg_1_desc_tbl
                0x0406f198       0x80 arch/arm/cpu/armv7/start.o
 .rel.rodata.op_adv
                0x0406f218       0x80 arch/arm/cpu/armv7/start.o
 .rel.rodata.CSWTCH.34
                0x0406f298       0x28 arch/arm/cpu/armv7/start.o
 .rel.rodata.subcmd_list
                0x0406f2c0       0x10 arch/arm/cpu/armv7/start.o
 .rel.u_boot_list_2_cmd_2_go
                0x0406f2d0       0x20 arch/arm/cpu/armv7/start.o
 .rel.u_boot_list_2_cmd_2_reset
                0x0406f2f0       0x20 arch/arm/cpu/armv7/start.o
 .rel.u_boot_list_2_cmd_2_iminfo
                0x0406f310       0x20 arch/arm/cpu/armv7/start.o
 .rel.u_boot_list_2_cmd_2_boot
                0x0406f330       0x20 arch/arm/cpu/armv7/start.o
 .rel.u_boot_list_2_cmd_2_bootd
                0x0406f350       0x20 arch/arm/cpu/armv7/start.o
 .rel.u_boot_list_2_cmd_2_bootm
                0x0406f370       0x20 arch/arm/cpu/armv7/start.o
 .rel.data.cmd_bootm_sub
                0x0406f390       0xd8 arch/arm/cpu/armv7/start.o
 .rel.u_boot_list_2_cmd_2_question_mark
                0x0406f468       0x20 arch/arm/cpu/armv7/start.o
 .rel.u_boot_list_2_cmd_2_help
                0x0406f488       0x20 arch/arm/cpu/armv7/start.o
 .rel.u_boot_list_2_cmd_2_version
                0x0406f4a8       0x20 arch/arm/cpu/armv7/start.o
 .rel.u_boot_list_2_cmd_2_source
                0x0406f4c8       0x20 arch/arm/cpu/armv7/start.o
 .rel.u_boot_list_2_cmd_2_bdinfo
                0x0406f4e8       0x20 arch/arm/cpu/armv7/start.o
 .rel.data.loaded_image_info_obj
                0x0406f508       0x28 arch/arm/cpu/armv7/start.o
 .rel.u_boot_list_2_cmd_2_bootefi
                0x0406f530       0x20 arch/arm/cpu/armv7/start.o
 .rel.data.bootefi_device_obj
                0x0406f550       0x18 arch/arm/cpu/armv7/start.o
 .rel.data.loaded_image_info
                0x0406f568       0x10 arch/arm/cpu/armv7/start.o
 .rel.u_boot_list_2_cmd_2_bootz
                0x0406f578       0x20 arch/arm/cpu/armv7/start.o
 .rel.u_boot_list_2_cmd_2_icache
                0x0406f598       0x20 arch/arm/cpu/armv7/start.o
 .rel.u_boot_list_2_cmd_2_dcache
                0x0406f5b8       0x20 arch/arm/cpu/armv7/start.o
 .rel.u_boot_list_2_cmd_2_clk
                0x0406f5d8       0x20 arch/arm/cpu/armv7/start.o
 .rel.data.cmd_clk_sub
                0x0406f5f8       0x20 arch/arm/cpu/armv7/start.o
 .rel.u_boot_list_2_cmd_2_coninfo
                0x0406f618       0x20 arch/arm/cpu/armv7/start.o
 .rel.u_boot_list_2_cmd_2_echo
                0x0406f638       0x20 arch/arm/cpu/armv7/start.o
 .rel.u_boot_list_2_cmd_2_eeprom
                0x0406f658       0x20 arch/arm/cpu/armv7/start.o
 .rel.u_boot_list_2_cmd_2_bootelf
                0x0406f678       0x20 arch/arm/cpu/armv7/start.o
 .rel.u_boot_list_2_cmd_2_bootvx
                0x0406f698       0x20 arch/arm/cpu/armv7/start.o
 .rel.u_boot_list_2_cmd_2_exit
                0x0406f6b8       0x20 arch/arm/cpu/armv7/start.o
 .rel.u_boot_list_2_cmd_2_ext4load
                0x0406f6d8       0x20 arch/arm/cpu/armv7/start.o
 .rel.u_boot_list_2_cmd_2_ext4write
                0x0406f6f8       0x20 arch/arm/cpu/armv7/start.o
 .rel.u_boot_list_2_cmd_2_ext4ls
                0x0406f718       0x20 arch/arm/cpu/armv7/start.o
 .rel.u_boot_list_2_cmd_2_ext4size
                0x0406f738       0x20 arch/arm/cpu/armv7/start.o
 .rel.u_boot_list_2_cmd_2_ext2ls
                0x0406f758       0x20 arch/arm/cpu/armv7/start.o
 .rel.u_boot_list_2_cmd_2_ext2load
                0x0406f778       0x20 arch/arm/cpu/armv7/start.o
 .rel.u_boot_list_2_cmd_2_fatinfo
                0x0406f798       0x20 arch/arm/cpu/armv7/start.o
 .rel.u_boot_list_2_cmd_2_fatwrite
                0x0406f7b8       0x20 arch/arm/cpu/armv7/start.o
 .rel.u_boot_list_2_cmd_2_fatload
                0x0406f7d8       0x20 arch/arm/cpu/armv7/start.o
 .rel.u_boot_list_2_cmd_2_fatls
                0x0406f7f8       0x20 arch/arm/cpu/armv7/start.o
 .rel.u_boot_list_2_cmd_2_fatsize
                0x0406f818       0x20 arch/arm/cpu/armv7/start.o
 .rel.u_boot_list_2_cmd_2_fdt
                0x0406f838       0x20 arch/arm/cpu/armv7/start.o
 .rel.u_boot_list_2_cmd_2_fpga
                0x0406f858       0x20 arch/arm/cpu/armv7/start.o
 .rel.u_boot_list_2_cmd_2_save
                0x0406f878       0x20 arch/arm/cpu/armv7/start.o
 .rel.u_boot_list_2_cmd_2_size
                0x0406f898       0x20 arch/arm/cpu/armv7/start.o
 .rel.u_boot_list_2_cmd_2_fstype
                0x0406f8b8       0x20 arch/arm/cpu/armv7/start.o
 .rel.u_boot_list_2_cmd_2_ls
                0x0406f8d8       0x20 arch/arm/cpu/armv7/start.o
 .rel.u_boot_list_2_cmd_2_load
                0x0406f8f8       0x20 arch/arm/cpu/armv7/start.o
 .rel.u_boot_list_2_cmd_2_gpio
                0x0406f918       0x20 arch/arm/cpu/armv7/start.o
 .rel.u_boot_list_2_cmd_2_i2c
                0x0406f938       0x20 arch/arm/cpu/armv7/start.o
 .rel.data.cmd_i2c_sub
                0x0406f958      0x1a0 arch/arm/cpu/armv7/start.o
 .rel.u_boot_list_2_cmd_2_itest
                0x0406faf8       0x20 arch/arm/cpu/armv7/start.o
 .rel.u_boot_list_2_cmd_2_loadb
                0x0406fb18       0x20 arch/arm/cpu/armv7/start.o
 .rel.u_boot_list_2_cmd_2_loadx
                0x0406fb38       0x20 arch/arm/cpu/armv7/start.o
 .rel.u_boot_list_2_cmd_2_loady
                0x0406fb58       0x20 arch/arm/cpu/armv7/start.o
 .rel.u_boot_list_2_cmd_2_loads
                0x0406fb78       0x20 arch/arm/cpu/armv7/start.o
 .rel.u_boot_list_2_cmd_2_base
                0x0406fb98       0x20 arch/arm/cpu/armv7/start.o
 .rel.u_boot_list_2_cmd_2_cmp
                0x0406fbb8       0x20 arch/arm/cpu/armv7/start.o
 .rel.u_boot_list_2_cmd_2_nm
                0x0406fbd8       0x20 arch/arm/cpu/armv7/start.o
 .rel.u_boot_list_2_cmd_2_loop
                0x0406fbf8       0x20 arch/arm/cpu/armv7/start.o
 .rel.u_boot_list_2_cmd_2_cp
                0x0406fc18       0x20 arch/arm/cpu/armv7/start.o
 .rel.u_boot_list_2_cmd_2_mm
                0x0406fc38       0x20 arch/arm/cpu/armv7/start.o
 .rel.u_boot_list_2_cmd_2_crc32
                0x0406fc58       0x20 arch/arm/cpu/armv7/start.o
 .rel.u_boot_list_2_cmd_2_md
                0x0406fc78       0x20 arch/arm/cpu/armv7/start.o
 .rel.u_boot_list_2_cmd_2_mw
                0x0406fc98       0x20 arch/arm/cpu/armv7/start.o
 .rel.u_boot_list_2_cmd_2_mii
                0x0406fcb8       0x20 arch/arm/cpu/armv7/start.o
 .rel.u_boot_list_2_cmd_2_mdio
                0x0406fcd8       0x20 arch/arm/cpu/armv7/start.o
 .rel.u_boot_list_2_cmd_2_sleep
                0x0406fcf8       0x20 arch/arm/cpu/armv7/start.o
 .rel.u_boot_list_2_cmd_2_mmcinfo
                0x0406fd18       0x20 arch/arm/cpu/armv7/start.o
 .rel.data.cmd_mmc
                0x0406fd38      0x140 arch/arm/cpu/armv7/start.o
 .rel.u_boot_list_2_cmd_2_mmc
                0x0406fe78       0x20 arch/arm/cpu/armv7/start.o
 .rel.u_boot_list_2_cmd_2_ping
                0x0406fe98       0x20 arch/arm/cpu/armv7/start.o
 .rel.u_boot_list_2_cmd_2_dhcp
                0x0406feb8       0x20 arch/arm/cpu/armv7/start.o
 .rel.u_boot_list_2_cmd_2_tftpput
                0x0406fed8       0x20 arch/arm/cpu/armv7/start.o
 .rel.u_boot_list_2_cmd_2_bootp
                0x0406fef8       0x20 arch/arm/cpu/armv7/start.o
 .rel.u_boot_list_2_cmd_2_tftpboot
                0x0406ff18       0x20 arch/arm/cpu/armv7/start.o
 .rel.u_boot_list_2_cmd_2_nfs
                0x0406ff38       0x20 arch/arm/cpu/armv7/start.o
 .rel.u_boot_list_2_cmd_2_sf
                0x0406ff58       0x20 arch/arm/cpu/armv7/start.o
 .rel.u_boot_list_2_cmd_2_test
                0x0406ff78       0x20 arch/arm/cpu/armv7/start.o
 .rel.u_boot_list_2_cmd_2_true
                0x0406ff98       0x18 arch/arm/cpu/armv7/start.o
 .rel.u_boot_list_2_cmd_2_false
                0x0406ffb0       0x18 arch/arm/cpu/armv7/start.o
 .rel.u_boot_list_2_cmd_2_usb
                0x0406ffc8       0x20 arch/arm/cpu/armv7/start.o
 .rel.u_boot_list_2_cmd_2_usbboot
                0x0406ffe8       0x20 arch/arm/cpu/armv7/start.o
 .rel.u_boot_list_2_cmd_2_thordown
                0x04070008       0x20 arch/arm/cpu/armv7/start.o
 .rel.u_boot_list_2_cmd_2_imxtract
                0x04070028       0x20 arch/arm/cpu/armv7/start.o
 .rel.data.cmd_spl_export_sub
                0x04070048       0x30 arch/arm/cpu/armv7/start.o
 .rel.data.__compound_literal.0
                0x04070078       0x38 arch/arm/cpu/armv7/start.o
 .rel.data.cmd_spl_sub
                0x040700b0       0x18 arch/arm/cpu/armv7/start.o
 .rel.u_boot_list_2_cmd_2_spl
                0x040700c8       0x20 arch/arm/cpu/armv7/start.o
 .rel.u_boot_list_2_cmd_2_dfu
                0x040700e8       0x20 arch/arm/cpu/armv7/start.o
 .rel.u_boot_list_2_cmd_2_setenv
                0x04070108       0x28 arch/arm/cpu/armv7/start.o
 .rel.u_boot_list_2_cmd_2_printenv
                0x04070130       0x28 arch/arm/cpu/armv7/start.o
 .rel.u_boot_list_2_cmd_2_env
                0x04070158       0x20 arch/arm/cpu/armv7/start.o
 .rel.u_boot_list_2_cmd_2_saveenv
                0x04070178       0x20 arch/arm/cpu/armv7/start.o
 .rel.data.cmd_env_sub
                0x04070198      0x140 arch/arm/cpu/armv7/start.o
 .rel.u_boot_list_2_cmd_2_editenv
                0x040702d8       0x28 arch/arm/cpu/armv7/start.o
 .rel.u_boot_list_2_cmd_2_run
                0x04070300       0x28 arch/arm/cpu/armv7/start.o
 .rel.text.main_loop
                0x04070328       0x10 arch/arm/cpu/armv7/start.o
 .rel.text.jumptable_init
                0x04070338       0xd0 arch/arm/cpu/armv7/start.o
 .rel.text.hash_lookup_algo
                0x04070408        0x8 arch/arm/cpu/armv7/start.o
 .rel.text.hash_progressive_lookup_algo
                0x04070410        0x8 arch/arm/cpu/armv7/start.o
 .rel.text.hash_command
                0x04070418       0x28 arch/arm/cpu/armv7/start.o
 .rel.text.mapset
                0x04070440        0x8 arch/arm/cpu/armv7/start.o
 .rel.text.syntax_err
                0x04070448        0x8 arch/arm/cpu/armv7/start.o
 .rel.text.xmalloc
                0x04070450        0x8 arch/arm/cpu/armv7/start.o
 .rel.text.xrealloc
                0x04070458        0x8 arch/arm/cpu/armv7/start.o
 .rel.text.done_word
                0x04070460        0x8 arch/arm/cpu/armv7/start.o
 .rel.text.do_showvar
                0x04070468       0x20 arch/arm/cpu/armv7/start.o
 .rel.text.is_assignment
                0x04070488        0x8 arch/arm/cpu/armv7/start.o
 .rel.text.file_get
                0x04070490       0x30 arch/arm/cpu/armv7/start.o
 .rel.text.b_addqchr
                0x040704c0        0x8 arch/arm/cpu/armv7/start.o
 .rel.text.get_local_var
                0x040704c8       0x20 arch/arm/cpu/armv7/start.o
 .rel.text.set_local_var
                0x040704e8       0x20 arch/arm/cpu/armv7/start.o
 .rel.text.insert_var_value_sub
                0x04070508        0x8 arch/arm/cpu/armv7/start.o
 .rel.text.unset_local_var
                0x00000000        0x0 arch/arm/cpu/armv7/start.o
 .rel.text.parse_string_outer
                0x04070510       0x18 arch/arm/cpu/armv7/start.o
 .rel.text.run_list_real
                0x04070528       0x40 arch/arm/cpu/armv7/start.o
 .rel.text.parse_stream_outer
                0x04070568       0x68 arch/arm/cpu/armv7/start.o
 .rel.text.parse_file_outer
                0x040705d0       0x10 arch/arm/cpu/armv7/start.o
 .rel.text.u_boot_hush_start
                0x040705e0       0x18 arch/arm/cpu/armv7/start.o
 .rel.text.bootdelay_process
                0x040705f8       0x38 arch/arm/cpu/armv7/start.o
 .rel.text.autoboot_command
                0x04070630       0x20 arch/arm/cpu/armv7/start.o
 .rel.text.setup_mon_len
                0x04070650       0x10 arch/arm/cpu/armv7/start.o
 .rel.text.announce_dram_init
                0x04070660        0x8 arch/arm/cpu/armv7/start.o
 .rel.text.init_func_i2c
                0x04070668       0x10 arch/arm/cpu/armv7/start.o
 .rel.text.init_baud_rate
                0x04070678        0x8 arch/arm/cpu/armv7/start.o
 .rel.text.show_dram_config
                0x04070680        0x8 arch/arm/cpu/armv7/start.o
 .rel.text.board_init_f
                0x04070688        0x8 arch/arm/cpu/armv7/start.o
 .rel.text.initr_net
                0x04070690        0x8 arch/arm/cpu/armv7/start.o
 .rel.text.initr_ethaddr
                0x04070698        0x8 arch/arm/cpu/armv7/start.o
 .rel.text.initr_env
                0x040706a0       0x20 arch/arm/cpu/armv7/start.o
 .rel.text.initr_mmc
                0x040706c0        0x8 arch/arm/cpu/armv7/start.o
 .rel.text.initr_reloc_global_data
                0x040706c8       0x18 arch/arm/cpu/armv7/start.o
 .rel.text.board_init_r
                0x040706e0        0x8 arch/arm/cpu/armv7/start.o
 .rel.text.show_board_info
                0x040706e8       0x10 arch/arm/cpu/armv7/start.o
 .rel.text.bootm_find_images
                0x040706f8       0x28 arch/arm/cpu/armv7/start.o
 .rel.text.bootm_decomp_image
                0x04070720       0x48 arch/arm/cpu/armv7/start.o
 .rel.text.do_bootm_states
                0x04070768       0xe8 arch/arm/cpu/armv7/start.o
 .rel.text.do_bootm_rtems
                0x04070850       0x20 arch/arm/cpu/armv7/start.o
 .rel.text.do_bootm_standalone
                0x04070870       0x18 arch/arm/cpu/armv7/start.o
 .rel.text.do_bootm_qnxelf
                0x04070888       0x20 arch/arm/cpu/armv7/start.o
 .rel.text.do_bootm_plan9
                0x040708a8       0x30 arch/arm/cpu/armv7/start.o
 .rel.text.do_bootvx_fdt
                0x040708d8       0x38 arch/arm/cpu/armv7/start.o
 .rel.text.do_bootm_vxworks
                0x04070910       0x18 arch/arm/cpu/armv7/start.o
 .rel.text.bootm_os_get_boot_func
                0x04070928        0x8 arch/arm/cpu/armv7/start.o
 .rel.text.regex_callback
                0x04070930       0x10 arch/arm/cpu/armv7/start.o
 .rel.text.env_attr_lookup
                0x04070940        0x8 arch/arm/cpu/armv7/start.o
 .rel.text.find_env_callback
                0x04070948       0x10 arch/arm/cpu/armv7/start.o
 .rel.text.on_callbacks
                0x04070958       0x20 arch/arm/cpu/armv7/start.o
 .rel.text.set_callback
                0x04070978        0x8 arch/arm/cpu/armv7/start.o
 .rel.text.env_callback_init
                0x04070980       0x20 arch/arm/cpu/armv7/start.o
 .rel.text.skip_num
                0x040709a0        0x8 arch/arm/cpu/armv7/start.o
 .rel.text.on_flags
                0x040709a8       0x20 arch/arm/cpu/armv7/start.o
 .rel.text.env_flags_parse_vartype
                0x040709c8       0x10 arch/arm/cpu/armv7/start.o
 .rel.text.env_flags_parse_varaccess
                0x040709d8       0x10 arch/arm/cpu/armv7/start.o
 .rel.text.set_flags
                0x040709e8       0x10 arch/arm/cpu/armv7/start.o
 .rel.text.env_flags_parse_varaccess_from_binflags
                0x00000000        0x0 arch/arm/cpu/armv7/start.o
 .rel.text.env_flags_init
                0x040709f8       0x30 arch/arm/cpu/armv7/start.o
 .rel.text.env_flags_validate
                0x04070a28       0x68 arch/arm/cpu/armv7/start.o
 .rel.text.saveenv
                0x04070a90       0x28 arch/arm/cpu/armv7/start.o
 .rel.text.env_relocate_spec
                0x04070ab8       0x18 arch/arm/cpu/armv7/start.o
 .rel.text.env_init
                0x04070ad0        0x8 arch/arm/cpu/armv7/start.o
 .rel.text.of_bus_default_count_cells
                0x04070ad8        0x8 arch/arm/cpu/armv7/start.o
 .rel.text.fdt_find_or_add_subnode
                0x04070ae0       0x10 arch/arm/cpu/armv7/start.o
 .rel.text.fdt_root
                0x04070af0       0x20 arch/arm/cpu/armv7/start.o
 .rel.text.fdt_initrd
                0x04070b10       0x30 arch/arm/cpu/armv7/start.o
 .rel.text.fdt_chosen
                0x04070b40       0x20 arch/arm/cpu/armv7/start.o
 .rel.text.do_fixup_by_path
                0x04070b60        0x8 arch/arm/cpu/armv7/start.o
 .rel.text.fdt_fixup_memory_banks
                0x04070b68       0x38 arch/arm/cpu/armv7/start.o
 .rel.text.fdt_fixup_ethernet
                0x04070ba0       0x30 arch/arm/cpu/armv7/start.o
 .rel.text.fdt_del_node_and_alias
                0x00000000        0x0 arch/arm/cpu/armv7/start.o
 .rel.text.fdt_translate_address
                0x04070bd0       0x20 arch/arm/cpu/armv7/start.o
 .rel.text.fdt_node_offset_by_compat_reg
                0x00000000        0x0 arch/arm/cpu/armv7/start.o
 .rel.text.fdt_set_phandle
                0x00000000        0x0 arch/arm/cpu/armv7/start.o
 .rel.text.fdt_create_phandle
                0x00000000        0x0 arch/arm/cpu/armv7/start.o
 .rel.text.fdt_set_node_status
                0x00000000        0x0 arch/arm/cpu/armv7/start.o
 .rel.text.fdt_verify_alias_address
                0x00000000        0x0 arch/arm/cpu/armv7/start.o
 .rel.text.fdt_get_base_address
                0x00000000        0x0 arch/arm/cpu/armv7/start.o
 .rel.text.fdt_read_range
                0x00000000        0x0 arch/arm/cpu/armv7/start.o
 .rel.text.fdt_setup_simplefb_node
                0x00000000        0x0 arch/arm/cpu/armv7/start.o
 .rel.text.fdt_fixup_display
                0x00000000        0x0 arch/arm/cpu/armv7/start.o
 .rel.text.miiphy_get_dev_by_name
                0x04070bf0       0x10 arch/arm/cpu/armv7/start.o
 .rel.text.miiphy_init
                0x04070c00       0x10 arch/arm/cpu/armv7/start.o
 .rel.text.mdio_register
                0x04070c10       0x18 arch/arm/cpu/armv7/start.o
 .rel.text.mdio_register_seq
                0x04070c28        0x8 arch/arm/cpu/armv7/start.o
 .rel.text.mdio_unregister
                0x04070c30        0x8 arch/arm/cpu/armv7/start.o
 .rel.text.mdio_list_devices
                0x04070c38       0x28 arch/arm/cpu/armv7/start.o
 .rel.text.miiphy_set_current_dev
                0x04070c60       0x10 arch/arm/cpu/armv7/start.o
 .rel.text.miiphy_get_active_dev
                0x04070c70        0x8 arch/arm/cpu/armv7/start.o
 .rel.text.mdio_get_current_dev
                0x04070c78        0x8 arch/arm/cpu/armv7/start.o
 .rel.text.mdio_phydev_for_ethname
                0x04070c80       0x10 arch/arm/cpu/armv7/start.o
 .rel.text.miiphy_get_current_dev
                0x04070c90        0x8 arch/arm/cpu/armv7/start.o
 .rel.text.miiphy_listdev
                0x04070c98       0x30 arch/arm/cpu/armv7/start.o
 .rel.text.miiphy_speed
                0x04070cc8       0x20 arch/arm/cpu/armv7/start.o
 .rel.text.miiphy_duplex
                0x04070ce8       0x20 arch/arm/cpu/armv7/start.o
 .rel.text.miiphy_link
                0x00000000        0x0 arch/arm/cpu/armv7/start.o
 .rel.text.get_descriptor_len
                0x04070d08       0x10 arch/arm/cpu/armv7/start.o
 .rel.text.usb_string_sub
                0x04070d18        0x8 arch/arm/cpu/armv7/start.o
 .rel.text.usb_get_configuration_len
                0x04070d20       0x10 arch/arm/cpu/armv7/start.o
 .rel.text.usb_set_interface
                0x04070d30        0x8 arch/arm/cpu/armv7/start.o
 .rel.text.usb_select_config
                0x04070d38       0x70 arch/arm/cpu/armv7/start.o
 .rel.text.usb_setup_device
                0x04070da8       0x18 arch/arm/cpu/armv7/start.o
 .rel.text.usb_find_usb2_hub_address_port
                0x04070dc0        0x8 arch/arm/cpu/armv7/start.o
 .rel.text.usb_hub_reset
                0x04070dc8       0x10 arch/arm/cpu/armv7/start.o
 .rel.text.usb_hub_port_connect_change
                0x04070dd8        0x8 arch/arm/cpu/armv7/start.o
 .rel.text.usb_hub_configure
                0x04070de0       0x40 arch/arm/cpu/armv7/start.o
 .rel.text.usb_stor_BBB_transport
                0x04070e20       0x10 arch/arm/cpu/armv7/start.o
 .rel.text.usb_stor_CB_comdat
                0x04070e30        0x8 arch/arm/cpu/armv7/start.o
 .rel.text.usb_stor_CBI_get_status.isra.2
                0x04070e38        0x8 arch/arm/cpu/armv7/start.o
 .rel.text.usb_stor_CB_transport
                0x04070e40       0x10 arch/arm/cpu/armv7/start.o
 .rel.text.usb_request_sense.constprop.10
                0x04070e50        0x8 arch/arm/cpu/armv7/start.o
 .rel.text.usb_stor_read
                0x04070e58        0x8 arch/arm/cpu/armv7/start.o
 .rel.text.usb_stor_write
                0x04070e60        0x8 arch/arm/cpu/armv7/start.o
 .rel.text.usb_stor_info
                0x04070e68       0x10 arch/arm/cpu/armv7/start.o
 .rel.text.usb_stor_reset
                0x04070e78        0x8 arch/arm/cpu/armv7/start.o
 .rel.text.usb_stor_scan
                0x04070e80       0x18 arch/arm/cpu/armv7/start.o
 .rel.text.usb_storage_probe
                0x04070e98       0x38 arch/arm/cpu/armv7/start.o
 .rel.text.usb_stor_get_info
                0x04070ed0       0x20 arch/arm/cpu/armv7/start.o
 .rel.text.usb_mass_storage_probe
                0x04070ef0       0x18 arch/arm/cpu/armv7/start.o
 .rel.text.env_get_addr
                0x04070f08        0x8 arch/arm/cpu/armv7/start.o
 .rel.text.env_get_char
                0x04070f10        0x8 arch/arm/cpu/armv7/start.o
 .rel.text.set_default_env
                0x04070f18       0x40 arch/arm/cpu/armv7/start.o
 .rel.text.set_default_vars
                0x04070f58       0x10 arch/arm/cpu/armv7/start.o
 .rel.text.env_import
                0x04070f68       0x38 arch/arm/cpu/armv7/start.o
 .rel.text.env_export
                0x04070fa0       0x28 arch/arm/cpu/armv7/start.o
 .rel.text.env_relocate
                0x04070fc8        0x8 arch/arm/cpu/armv7/start.o
 .rel.text.env_complete
                0x04070fd0       0x18 arch/arm/cpu/armv7/start.o
 .rel.text.console_setfile
                0x04070fe8       0x30 arch/arm/cpu/armv7/start.o
 .rel.text.puts
                0x04071018        0x8 arch/arm/cpu/armv7/start.o
 .rel.text.putc
                0x04071020        0x8 arch/arm/cpu/armv7/start.o
 .rel.text.fgetc
                0x04071028        0x8 arch/arm/cpu/armv7/start.o
 .rel.text.ftstc
                0x04071030        0x8 arch/arm/cpu/armv7/start.o
 .rel.text.fputc
                0x00000000        0x0 arch/arm/cpu/armv7/start.o
 .rel.text.fputs
                0x00000000        0x0 arch/arm/cpu/armv7/start.o
 .rel.text.ctrlc
                0x04071038       0x10 arch/arm/cpu/armv7/start.o
 .rel.text.confirm_yesno
                0x00000000        0x0 arch/arm/cpu/armv7/start.o
 .rel.text.disable_ctrlc
                0x04071048        0x8 arch/arm/cpu/armv7/start.o
 .rel.text.had_ctrlc
                0x04071050        0x8 arch/arm/cpu/armv7/start.o
 .rel.text.clear_ctrlc
                0x04071058        0x8 arch/arm/cpu/armv7/start.o
 .rel.text.on_console
                0x04071060       0x20 arch/arm/cpu/armv7/start.o
 .rel.text.stdio_print_current_devices
                0x04071080       0x40 arch/arm/cpu/armv7/start.o
 .rel.text.console_init_r
                0x040710c0       0x10 arch/arm/cpu/armv7/start.o
 .rel.text.sbrk
                0x040710d0       0x18 arch/arm/cpu/armv7/start.o
 .rel.text.mem_malloc_init
                0x040710e8       0x18 arch/arm/cpu/armv7/start.o
 .rel.text.malloc_trim
                0x04071100       0x18 arch/arm/cpu/armv7/start.o
 .rel.text.free
                0x04071118       0x18 arch/arm/cpu/armv7/start.o
 .rel.text.malloc
                0x04071130       0x40 arch/arm/cpu/armv7/start.o
 .rel.text.calloc
                0x04071170        0x8 arch/arm/cpu/armv7/start.o
 .rel.text.realloc
                0x04071178       0x10 arch/arm/cpu/armv7/start.o
 .rel.text.mallopt
                0x00000000        0x0 arch/arm/cpu/armv7/start.o
 .rel.text.on_loadaddr
                0x04071188        0x8 arch/arm/cpu/armv7/start.o
 .rel.text.getenv_bootm_low
                0x04071190        0x8 arch/arm/cpu/armv7/start.o
 .rel.text.getenv_bootm_size
                0x04071198       0x10 arch/arm/cpu/armv7/start.o
 .rel.text.getenv_bootm_mapsize
                0x040711a8        0x8 arch/arm/cpu/armv7/start.o
 .rel.text.genimg_print_size
                0x040711b0       0x10 arch/arm/cpu/armv7/start.o
 .rel.text.genimg_get_short_name
                0x00000000        0x0 arch/arm/cpu/armv7/start.o
 .rel.text.genimg_get_cat_name
                0x00000000        0x0 arch/arm/cpu/armv7/start.o
 .rel.text.genimg_get_cat_short_name
                0x00000000        0x0 arch/arm/cpu/armv7/start.o
 .rel.text.genimg_get_cat_count
                0x00000000        0x0 arch/arm/cpu/armv7/start.o
 .rel.text.genimg_get_cat_desc
                0x00000000        0x0 arch/arm/cpu/armv7/start.o
 .rel.text.genimg_get_os_name
                0x040711c0       0x10 arch/arm/cpu/armv7/start.o
 .rel.text.genimg_get_arch_name
                0x040711d0       0x10 arch/arm/cpu/armv7/start.o
 .rel.text.genimg_get_type_name
                0x040711e0       0x10 arch/arm/cpu/armv7/start.o
 .rel.text.genimg_get_type_short_name
                0x00000000        0x0 arch/arm/cpu/armv7/start.o
 .rel.text.genimg_get_comp_name
                0x040711f0       0x10 arch/arm/cpu/armv7/start.o
 .rel.text.image_print_contents
                0x04071200       0x58 arch/arm/cpu/armv7/start.o
 .rel.text.genimg_get_comp_short_name
                0x00000000        0x0 arch/arm/cpu/armv7/start.o
 .rel.text.genimg_get_os_short_name
                0x00000000        0x0 arch/arm/cpu/armv7/start.o
 .rel.text.genimg_get_arch_short_name
                0x00000000        0x0 arch/arm/cpu/armv7/start.o
 .rel.text.genimg_get_os_id
                0x04071258       0x10 arch/arm/cpu/armv7/start.o
 .rel.text.genimg_get_arch_id
                0x04071268       0x10 arch/arm/cpu/armv7/start.o
 .rel.text.genimg_get_type_id
                0x04071278       0x10 arch/arm/cpu/armv7/start.o
 .rel.text.genimg_get_comp_id
                0x04071288       0x10 arch/arm/cpu/armv7/start.o
 .rel.text.genimg_get_kernel_addr_fit
                0x04071298        0x8 arch/arm/cpu/armv7/start.o
 .rel.text.boot_get_ramdisk
                0x040712a0       0x60 arch/arm/cpu/armv7/start.o
 .rel.text.boot_ramdisk_high
                0x04071300       0x20 arch/arm/cpu/armv7/start.o
 .rel.text.boot_get_fpga
                0x04071320       0x28 arch/arm/cpu/armv7/start.o
 .rel.text.boot_get_loadable
                0x04071348       0x20 arch/arm/cpu/armv7/start.o
 .rel.text.fdt_error
                0x04071368       0x10 arch/arm/cpu/armv7/start.o
 .rel.text.boot_fdt_add_mem_rsv_regions
                0x04071378        0x8 arch/arm/cpu/armv7/start.o
 .rel.text.boot_relocate_fdt
                0x04071380       0x40 arch/arm/cpu/armv7/start.o
 .rel.text.boot_get_fdt
                0x040713c0       0x90 arch/arm/cpu/armv7/start.o
 .rel.text.image_setup_libfdt
                0x04071450       0x20 arch/arm/cpu/armv7/start.o
 .rel.text.fit_image_get_address
                0x04071470        0x8 arch/arm/cpu/armv7/start.o
 .rel.text.fit_get_desc
                0x04071478        0x8 arch/arm/cpu/armv7/start.o
 .rel.text.fit_get_timestamp
                0x00000000        0x0 arch/arm/cpu/armv7/start.o
 .rel.text.fit_image_get_node
                0x04071480        0x8 arch/arm/cpu/armv7/start.o
 .rel.text.fit_image_get_os
                0x04071488        0x8 arch/arm/cpu/armv7/start.o
 .rel.text.fit_image_get_arch
                0x04071490        0x8 arch/arm/cpu/armv7/start.o
 .rel.text.fit_image_get_type
                0x04071498        0x8 arch/arm/cpu/armv7/start.o
 .rel.text.fit_image_get_comp
                0x040714a0        0x8 arch/arm/cpu/armv7/start.o
 .rel.text.fit_image_get_load
                0x040714a8        0x8 arch/arm/cpu/armv7/start.o
 .rel.text.fit_image_get_entry
                0x040714b0        0x8 arch/arm/cpu/armv7/start.o
 .rel.text.fit_image_get_data
                0x040714b8        0x8 arch/arm/cpu/armv7/start.o
 .rel.text.fit_image_hash_get_algo
                0x040714c0        0x8 arch/arm/cpu/armv7/start.o
 .rel.text.fit_image_hash_get_value
                0x040714c8        0x8 arch/arm/cpu/armv7/start.o
 .rel.text.fit_image_print_data
                0x040714d0       0x58 arch/arm/cpu/armv7/start.o
 .rel.text.fit_image_print
                0x04071528       0x80 arch/arm/cpu/armv7/start.o
 .rel.text.fit_set_timestamp
                0x00000000        0x0 arch/arm/cpu/armv7/start.o
 .rel.text.calculate_hash
                0x040715a8       0x20 arch/arm/cpu/armv7/start.o
 .rel.text.fit_image_verify
                0x040715c8       0x88 arch/arm/cpu/armv7/start.o
 .rel.text.fit_all_image_verify
                0x04071650       0x28 arch/arm/cpu/armv7/start.o
 .rel.text.fit_check_format
                0x04071678       0x10 arch/arm/cpu/armv7/start.o
 .rel.text.fit_conf_find_compat
                0x00000000        0x0 arch/arm/cpu/armv7/start.o
 .rel.text.fit_conf_get_node
                0x04071688       0x10 arch/arm/cpu/armv7/start.o
 .rel.text.fit_conf_print
                0x04071698       0x70 arch/arm/cpu/armv7/start.o
 .rel.text.fit_print_contents
                0x04071708       0x58 arch/arm/cpu/armv7/start.o
 .rel.text.fit_image_load
                0x04071760       0xa0 arch/arm/cpu/armv7/start.o
 .rel.text.boot_get_setup_fit
                0x04071800        0x8 arch/arm/cpu/armv7/start.o
 .rel.text.image_get_checksum_algo
                0x04071808        0x8 arch/arm/cpu/armv7/start.o
 .rel.text.image_get_crypto_algo
                0x04071810        0x8 arch/arm/cpu/armv7/start.o
 .rel.text.fit_image_setup_verify
                0x04071818       0x20 arch/arm/cpu/armv7/start.o
 .rel.text.fit_image_check_sig
                0x04071838       0x10 arch/arm/cpu/armv7/start.o
 .rel.text.fit_image_verify_required_sigs
                0x04071848       0x48 arch/arm/cpu/armv7/start.o
 .rel.text.fit_config_check_sig
                0x04071890       0x50 arch/arm/cpu/armv7/start.o
 .rel.text.fit_config_verify_required_sigs
                0x040718e0       0x48 arch/arm/cpu/armv7/start.o
 .rel.text.stdio_get_list
                0x04071928        0x8 arch/arm/cpu/armv7/start.o
 .rel.text.stdio_get_by_name
                0x04071930        0x8 arch/arm/cpu/armv7/start.o
 .rel.text.stdio_register_dev
                0x04071938        0x8 arch/arm/cpu/armv7/start.o
 .rel.text.stdio_init_tables
                0x04071940        0x8 arch/arm/cpu/armv7/start.o
 .rel.text.stdio_add_devices
                0x04071948       0x28 arch/arm/cpu/armv7/start.o
 .rel.text.cli_simple_parse_line
                0x00000000        0x0 arch/arm/cpu/armv7/start.o
 .rel.text.cli_simple_run_command
                0x00000000        0x0 arch/arm/cpu/armv7/start.o
 .rel.text.cli_simple_loop
                0x00000000        0x0 arch/arm/cpu/armv7/start.o
 .rel.text.do_run
                0x04071970        0x8 arch/arm/cpu/armv7/start.o
 .rel.text.cli_process_fdt
                0x04071978       0x10 arch/arm/cpu/armv7/start.o
 .rel.text.cli_secure_boot_cmd
                0x04071988       0x18 arch/arm/cpu/armv7/start.o
 .rel.text.delete_char.part.0
                0x040719a0       0x10 arch/arm/cpu/armv7/start.o
 .rel.text.cread_add_char
                0x040719b0        0x8 arch/arm/cpu/armv7/start.o
 .rel.text.cli_readline_into_buffer
                0x040719b8      0x170 arch/arm/cpu/armv7/start.o
 .rel.text.cli_readline
                0x04071b28        0x8 arch/arm/cpu/armv7/start.o
 .rel.text.run_usb_dnl_gadget
                0x04071b30       0x38 arch/arm/cpu/armv7/start.o
 .rel.text.find_cmd
                0x04071b68       0x10 arch/arm/cpu/armv7/start.o
 .rel.text.cmd_usage
                0x04071b78       0x18 arch/arm/cpu/armv7/start.o
 .rel.text._do_help
                0x04071b90       0x10 arch/arm/cpu/armv7/start.o
 .rel.text.var_complete
                0x04071ba0       0x10 arch/arm/cpu/armv7/start.o
 .rel.text.cmd_auto_complete
                0x04071bb0       0x48 arch/arm/cpu/armv7/start.o
 .rel.text.cmd_get_data_size
                0x04071bf8        0x8 arch/arm/cpu/armv7/start.o
 .rel.text.cmd_process
                0x04071c00       0x18 arch/arm/cpu/armv7/start.o
 .rel.text.cmd_process_error
                0x04071c18        0x8 arch/arm/cpu/armv7/start.o
 .rel.text.srec_decode
                0x04071c20       0x50 arch/arm/cpu/armv7/start.o
 .rel.text.xyzModem_get_hdr
                0x04071c70       0x30 arch/arm/cpu/armv7/start.o
 .rel.text.xyzModem_stream_open
                0x04071ca0       0x10 arch/arm/cpu/armv7/start.o
 .rel.text.xyzModem_stream_read
                0x04071cb0        0x8 arch/arm/cpu/armv7/start.o
 .rel.text.xyzModem_stream_close
                0x04071cb8       0x20 arch/arm/cpu/armv7/start.o
 .rel.text.xyzModem_stream_terminate
                0x04071cd8        0x8 arch/arm/cpu/armv7/start.o
 .rel.text.xyzModem_error
                0x04071ce0       0x10 arch/arm/cpu/armv7/start.o
 .rel.rodata.boot_os
                0x04071cf0       0x30 arch/arm/cpu/armv7/start.o
 .rel.rodata.usb_hub_ids
                0x04071d20        0x8 arch/arm/cpu/armv7/start.o
 .rel.rodata.usb_mass_storage_ids
                0x04071d28        0x8 arch/arm/cpu/armv7/start.o
 .rel.rodata.usb_storage_ops
                0x04071d30       0x10 arch/arm/cpu/armv7/start.o
 .rel.rodata.uimage_comp
                0x04071d40       0x70 arch/arm/cpu/armv7/start.o
 .rel.rodata.uimage_os
                0x04071db0       0xa0 arch/arm/cpu/armv7/start.o
 .rel.rodata.table_info
                0x00000000        0x0 arch/arm/cpu/armv7/start.o
 .rel.rodata.uimage_type
                0x04071e50      0x200 arch/arm/cpu/armv7/start.o
 .rel.rodata.uimage_arch
                0x04072050      0x1a0 arch/arm/cpu/armv7/start.o
 .rel.rodata.CSWTCH.99
                0x040721f0       0xd8 arch/arm/cpu/armv7/start.o
 .rel.rodata.CSWTCH.28
                0x040722c8       0x40 arch/arm/cpu/armv7/start.o
 .rel.data.hash_algo
                0x04072308       0x78 arch/arm/cpu/armv7/start.o
 .rel.data.reserved_list
                0x04072380       0x58 arch/arm/cpu/armv7/start.o
 .rel.u_boot_list_2_cmd_2_showvar
                0x040723d8       0x20 arch/arm/cpu/armv7/start.o
 .rel.data.init_sequence_f
                0x040723f8      0x130 arch/arm/cpu/armv7/start.o
 .rel.data.init_sequence_r
                0x04072528       0xf0 arch/arm/cpu/armv7/start.o
 .rel.u_boot_list_2_env_clbk_2_callbacks
                0x04072618       0x10 arch/arm/cpu/armv7/start.o
 .rel.u_boot_list_2_env_clbk_2_flags
                0x04072628       0x10 arch/arm/cpu/armv7/start.o
 .rel.data.env_name_spec
                0x04072638        0x8 arch/arm/cpu/armv7/start.o
 .rel.data.of_busses
                0x04072640       0x28 arch/arm/cpu/armv7/start.o
 .rel.u_boot_list_2_usb_driver_entry_2_usb_generic_hub
                0x04072668       0x10 arch/arm/cpu/armv7/start.o
 .rel.u_boot_list_2_driver_2_usb_generic_hub
                0x04072678       0x10 arch/arm/cpu/armv7/start.o
 .rel.u_boot_list_2_uclass_2_usb_hub
                0x04072688       0x20 arch/arm/cpu/armv7/start.o
 .rel.data.usb_scan_list
                0x040726a8       0x10 arch/arm/cpu/armv7/start.o
 .rel.u_boot_list_2_driver_2_usb_storage_blk
                0x040726b8       0x10 arch/arm/cpu/armv7/start.o
 .rel.u_boot_list_2_driver_2_usb_mass_storage
                0x040726c8       0x18 arch/arm/cpu/armv7/start.o
 .rel.u_boot_list_2_uclass_2_usb_mass_storage
                0x040726e0        0x8 arch/arm/cpu/armv7/start.o
 .rel.u_boot_list_2_usb_driver_entry_2_usb_mass_storage
                0x040726e8       0x10 arch/arm/cpu/armv7/start.o
 .rel.data.env_htab
                0x040726f8        0x8 arch/arm/cpu/armv7/start.o
 .rel.u_boot_list_2_env_clbk_2_console
                0x04072700       0x10 arch/arm/cpu/armv7/start.o
 .rel.data.av_  0x04072710      0x800 arch/arm/cpu/armv7/start.o
 .rel.u_boot_list_2_env_clbk_2_loadaddr
                0x04072f10       0x10 arch/arm/cpu/armv7/start.o
 .rel.data.crypto_algos
                0x04072f20       0x40 arch/arm/cpu/armv7/start.o
 .rel.data.checksum_algos
                0x04072f60       0x30 arch/arm/cpu/armv7/start.o
 .rel.data.stdio_names
                0x04072f90       0x18 arch/arm/cpu/armv7/start.o
 .rel.text.dev_print
                0x04072fa8      0x110 arch/arm/cpu/armv7/start.o
 .rel.text.part_init
                0x040730b8       0x10 arch/arm/cpu/armv7/start.o
 .rel.text.part_print
                0x040730c8       0xb8 arch/arm/cpu/armv7/start.o
 .rel.text.part_get_info
                0x04073180       0x10 arch/arm/cpu/armv7/start.o
 .rel.text.blk_get_device_by_str
                0x04073190       0x18 arch/arm/cpu/armv7/start.o
 .rel.text.blk_get_device_part_str
                0x040731a8       0x60 arch/arm/cpu/armv7/start.o
 .rel.text.part_get_info_by_name
                0x00000000        0x0 arch/arm/cpu/armv7/start.o
 .rel.text.part_set_generic_name
                0x04073208       0x18 arch/arm/cpu/armv7/start.o
 .rel.text.test_block_type
                0x04073220       0x10 arch/arm/cpu/armv7/start.o
 .rel.text.print_partition_extended
                0x04073230       0x30 arch/arm/cpu/armv7/start.o
 .rel.text.part_print_dos
                0x04073260        0x8 arch/arm/cpu/armv7/start.o
 .rel.text.part_get_info_extended.constprop.2
                0x04073268       0x18 arch/arm/cpu/armv7/start.o
 .rel.text.write_mbr_partition
                0x00000000        0x0 arch/arm/cpu/armv7/start.o
 .rel.rodata.CSWTCH.46
                0x04073280       0x40 arch/arm/cpu/armv7/start.o
 .rel.u_boot_list_2_part_driver_2_dos
                0x040732c0       0x20 arch/arm/cpu/armv7/start.o
 .rel.text.device_bind_common.isra.5
                0x040732e0       0x10 arch/arm/cpu/armv7/start.o
 .rel.text.device_probe
                0x040732f0       0x10 arch/arm/cpu/armv7/start.o
 .rel.text.dev_get_platdata
                0x04073300       0x10 arch/arm/cpu/armv7/start.o
 .rel.text.dev_get_parent_platdata
                0x04073310       0x10 arch/arm/cpu/armv7/start.o
 .rel.text.dev_get_uclass_platdata
                0x04073320       0x10 arch/arm/cpu/armv7/start.o
 .rel.text.dev_get_priv
                0x04073330       0x10 arch/arm/cpu/armv7/start.o
 .rel.text.dev_get_uclass_priv
                0x04073340       0x10 arch/arm/cpu/armv7/start.o
 .rel.text.dev_get_parent_priv
                0x04073350       0x10 arch/arm/cpu/armv7/start.o
 .rel.text.dev_get_addr_index
                0x04073360        0x8 arch/arm/cpu/armv7/start.o
 .rel.text.dev_get_addr_size_index
                0x00000000        0x0 arch/arm/cpu/armv7/start.o
 .rel.text.dev_get_addr_name
                0x00000000        0x0 arch/arm/cpu/armv7/start.o
 .rel.text.lists_driver_lookup_name
                0x04073368       0x10 arch/arm/cpu/armv7/start.o
 .rel.text.lists_uclass_lookup
                0x04073378       0x10 arch/arm/cpu/armv7/start.o
 .rel.text.lists_bind_drivers
                0x04073388       0x18 arch/arm/cpu/armv7/start.o
 .rel.text.lists_bind_fdt
                0x040733a0       0x28 arch/arm/cpu/armv7/start.o
 .rel.text.dm_root
                0x040733c8        0x8 arch/arm/cpu/armv7/start.o
 .rel.text.dm_init
                0x040733d0       0x10 arch/arm/cpu/armv7/start.o
 .rel.text.dm_scan_platdata
                0x040733e0        0x8 arch/arm/cpu/armv7/start.o
 .rel.text.dm_scan_fdt_node
                0x040733e8       0x10 arch/arm/cpu/armv7/start.o
 .rel.text.uclass_resolve_seq
                0x040733f8        0x8 arch/arm/cpu/armv7/start.o
 .rel.text.device_remove
                0x04073400       0x20 arch/arm/cpu/armv7/start.o
 .rel.text.simple_bus_post_bind
                0x04073420        0x8 arch/arm/cpu/armv7/start.o
 .rel.text.show_devices
                0x04073428       0x30 arch/arm/cpu/armv7/start.o
 .rel.text.dm_dump_all
                0x04073458       0x10 arch/arm/cpu/armv7/start.o
 .rel.text.dm_dump_uclass
                0x04073468       0x20 arch/arm/cpu/armv7/start.o
 .rel.text.blk_get_devnum_by_typename
                0x04073488       0x10 arch/arm/cpu/armv7/start.o
 .rel.text.blk_list_devices
                0x00000000        0x0 arch/arm/cpu/armv7/start.o
 .rel.text.blk_print_device_num
                0x00000000        0x0 arch/arm/cpu/armv7/start.o
 .rel.text.blk_show_device
                0x00000000        0x0 arch/arm/cpu/armv7/start.o
 .rel.text.blk_create_devicef
                0x04073498        0x8 arch/arm/cpu/armv7/start.o
 .rel.text.fpga_no_sup
                0x040734a0       0x18 arch/arm/cpu/armv7/start.o
 .rel.text.fpga_get_desc
                0x040734b8       0x10 arch/arm/cpu/armv7/start.o
 .rel.text.fpga_dev_info
                0x040734c8       0x30 arch/arm/cpu/armv7/start.o
 .rel.text.fpga_validate
                0x040734f8       0x10 arch/arm/cpu/armv7/start.o
 .rel.text.fpga_init
                0x04073508       0x10 arch/arm/cpu/armv7/start.o
 .rel.text.fpga_count
                0x04073518        0x8 arch/arm/cpu/armv7/start.o
 .rel.text.fpga_add
                0x04073520       0x38 arch/arm/cpu/armv7/start.o
 .rel.text.fpga_loadbitstream
                0x04073558       0x70 arch/arm/cpu/armv7/start.o
 .rel.text.fpga_fsload
                0x040735c8       0x10 arch/arm/cpu/armv7/start.o
 .rel.text.fpga_load
                0x040735d8       0x20 arch/arm/cpu/armv7/start.o
 .rel.text.fpga_dump
                0x040735f8       0x20 arch/arm/cpu/armv7/start.o
 .rel.text.fpga_info
                0x04073618       0x18 arch/arm/cpu/armv7/start.o
 .rel.text.zynq_dma_transfer.constprop.4
                0x04073630       0x10 arch/arm/cpu/armv7/start.o
 .rel.text.zynq_align_dma_buffer
                0x04073640       0x18 arch/arm/cpu/armv7/start.o
 .rel.text.zynq_validate_bitstream.isra.3
                0x04073658       0x38 arch/arm/cpu/armv7/start.o
 .rel.text.zynq_loadfs
                0x04073690       0x10 arch/arm/cpu/armv7/start.o
 .rel.text.zynq_load
                0x040736a0       0x10 arch/arm/cpu/armv7/start.o
 .rel.text.xilinx_validate
                0x040736b0       0x20 arch/arm/cpu/armv7/start.o
 .rel.text.xilinx_load
                0x040736d0       0x20 arch/arm/cpu/armv7/start.o
 .rel.text.xilinx_loadfs
                0x040736f0       0x18 arch/arm/cpu/armv7/start.o
 .rel.text.xilinx_dump
                0x04073708       0x20 arch/arm/cpu/armv7/start.o
 .rel.text.xilinx_info
                0x04073728      0x128 arch/arm/cpu/armv7/start.o
 .rel.text.dfu_write_buffer_drain
                0x04073850       0x10 arch/arm/cpu/armv7/start.o
 .rel.text.dfu_free_buf
                0x04073860        0x8 arch/arm/cpu/armv7/start.o
 .rel.text.dfu_get_buf_size
                0x04073868        0x8 arch/arm/cpu/armv7/start.o
 .rel.text.dfu_get_buf
                0x04073870       0x28 arch/arm/cpu/armv7/start.o
 .rel.text.dfu_write_transaction_cleanup
                0x04073898        0x8 arch/arm/cpu/armv7/start.o
 .rel.text.dfu_flush
                0x040738a0       0x10 arch/arm/cpu/armv7/start.o
 .rel.text.dfu_write
                0x040738b0       0x28 arch/arm/cpu/armv7/start.o
 .rel.text.dfu_read
                0x040738d8       0x40 arch/arm/cpu/armv7/start.o
 .rel.text.dfu_free_entities
                0x04073918       0x10 arch/arm/cpu/armv7/start.o
 .rel.text.dfu_config_entities
                0x04073928       0xa8 arch/arm/cpu/armv7/start.o
 .rel.text.dfu_init_env_entities
                0x040739d0       0x28 arch/arm/cpu/armv7/start.o
 .rel.text.dfu_get_dev_type
                0x040739f8        0x8 arch/arm/cpu/armv7/start.o
 .rel.text.dfu_get_layout
                0x04073a00        0x8 arch/arm/cpu/armv7/start.o
 .rel.text.dfu_show_entities
                0x04073a08       0x18 arch/arm/cpu/armv7/start.o
 .rel.text.dfu_get_alt_number
                0x04073a20        0x8 arch/arm/cpu/armv7/start.o
 .rel.text.dfu_get_entity
                0x04073a28        0x8 arch/arm/cpu/armv7/start.o
 .rel.text.dfu_get_alt
                0x04073a30        0x8 arch/arm/cpu/armv7/start.o
 .rel.text.dfu_write_from_mem_addr
                0x00000000        0x0 arch/arm/cpu/armv7/start.o
 .rel.text.mmc_block_op
                0x04073a38       0x30 arch/arm/cpu/armv7/start.o
 .rel.text.mmc_file_op
                0x04073a68       0x70 arch/arm/cpu/armv7/start.o
 .rel.text.dfu_free_entity_mmc
                0x04073ad8        0x8 arch/arm/cpu/armv7/start.o
 .rel.text.dfu_write_medium_mmc
                0x04073ae0       0x20 arch/arm/cpu/armv7/start.o
 .rel.text.dfu_flush_medium_mmc
                0x04073b00       0x10 arch/arm/cpu/armv7/start.o
 .rel.text.dfu_get_medium_size_mmc
                0x04073b10       0x18 arch/arm/cpu/armv7/start.o
 .rel.text.dfu_read_medium_mmc
                0x04073b28       0x20 arch/arm/cpu/armv7/start.o
 .rel.text.dfu_fill_entity_mmc
                0x04073b48       0xa0 arch/arm/cpu/armv7/start.o
 .rel.text.dfu_write_medium_ram
                0x04073be8       0x20 arch/arm/cpu/armv7/start.o
 .rel.text.dfu_read_medium_ram
                0x04073c08       0x20 arch/arm/cpu/armv7/start.o
 .rel.text.dfu_fill_entity_ram
                0x04073c28       0x48 arch/arm/cpu/armv7/start.o
 .rel.text._input_send_keycodes
                0x00000000        0x0 arch/arm/cpu/armv7/start.o
 .rel.text.input_add_tables
                0x00000000        0x0 arch/arm/cpu/armv7/start.o
 .rel.text.input_stdio_register
                0x00000000        0x0 arch/arm/cpu/armv7/start.o
 .rel.text.key_matrix_decode_fdt
                0x00000000        0x0 arch/arm/cpu/armv7/start.o
 .rel.rodata.root_info
                0x04073c70        0x8 arch/arm/cpu/armv7/start.o
 .rel.rodata.generic_simple_bus_ids
                0x04073c78       0x10 arch/arm/cpu/armv7/start.o
 .rel.rodata.if_typename_str
                0x04073c88       0x50 arch/arm/cpu/armv7/start.o
 .rel.rodata.mod_exp_ops_sw
                0x04073cd8        0x8 arch/arm/cpu/armv7/start.o
 .rel.rodata.kbd_to_ansi364
                0x00000000        0x0 arch/arm/cpu/armv7/start.o
 .rel.u_boot_list_2_driver_2_root_driver
                0x04073ce0        0x8 arch/arm/cpu/armv7/start.o
 .rel.u_boot_list_2_uclass_2_root
                0x04073ce8        0x8 arch/arm/cpu/armv7/start.o
 .rel.u_boot_list_2_uclass_2_simple_bus
                0x04073cf0       0x10 arch/arm/cpu/armv7/start.o
 .rel.u_boot_list_2_driver_2_simple_bus_drv
                0x04073d00       0x10 arch/arm/cpu/armv7/start.o
 .rel.u_boot_list_2_uclass_2_blk
                0x04073d10        0x8 arch/arm/cpu/armv7/start.o
 .rel.u_boot_list_2_uclass_2_mod_exp
                0x04073d18        0x8 arch/arm/cpu/armv7/start.o
 .rel.u_boot_list_2_driver_info_2_mod_exp_sw
                0x04073d20        0x8 arch/arm/cpu/armv7/start.o
 .rel.u_boot_list_2_driver_2_mod_exp_sw
                0x04073d28       0x10 arch/arm/cpu/armv7/start.o
 .rel.data.zynq_op
                0x04073d38       0x10 arch/arm/cpu/armv7/start.o
 .rel.data.dfu_list
                0x04073d48       0x10 arch/arm/cpu/armv7/start.o
 .rel.data.kbd_entry
                0x00000000        0x0 arch/arm/cpu/armv7/start.o
 .rel.text.check_reserved
                0x04073d58       0x10 arch/arm/cpu/armv7/start.o
 .rel.text.dm_gpio_lookup_name
                0x04073d68        0x8 arch/arm/cpu/armv7/start.o
 .rel.text.gpio_direction_input
                0x04073d70        0x8 arch/arm/cpu/armv7/start.o
 .rel.text.gpio_direction_output
                0x04073d78        0x8 arch/arm/cpu/armv7/start.o
 .rel.text.dm_gpio_get_value
                0x04073d80        0x8 arch/arm/cpu/armv7/start.o
 .rel.text.dm_gpio_set_value
                0x04073d88        0x8 arch/arm/cpu/armv7/start.o
 .rel.text.dm_gpio_get_open_drain
                0x00000000        0x0 arch/arm/cpu/armv7/start.o
 .rel.text.dm_gpio_set_open_drain
                0x00000000        0x0 arch/arm/cpu/armv7/start.o
 .rel.text.dm_gpio_set_dir_flags
                0x00000000        0x0 arch/arm/cpu/armv7/start.o
 .rel.text._gpio_request_by_name_nodev
                0x00000000        0x0 arch/arm/cpu/armv7/start.o
 .rel.text.gpio_get_status
                0x04073d90       0x28 arch/arm/cpu/armv7/start.o
 .rel.text.gpio_get_list_count
                0x00000000        0x0 arch/arm/cpu/armv7/start.o
 .rel.text.check_gpio
                0x04073db8        0x8 arch/arm/cpu/armv7/start.o
 .rel.text.zynq_gpio_get_function
                0x04073dc0        0x8 arch/arm/cpu/armv7/start.o
 .rel.text.zynq_gpio_set_value
                0x04073dc8        0x8 arch/arm/cpu/armv7/start.o
 .rel.text.zynq_gpio_get_value
                0x04073dd0        0x8 arch/arm/cpu/armv7/start.o
 .rel.text.zynq_gpio_direction_input
                0x04073dd8        0x8 arch/arm/cpu/armv7/start.o
 .rel.text.zynq_gpio_direction_output
                0x04073de0        0x8 arch/arm/cpu/armv7/start.o
 .rel.text.zynq_gpio_probe
                0x04073de8       0x10 arch/arm/cpu/armv7/start.o
 .rel.rodata.gpio_function
                0x04073df8       0x28 arch/arm/cpu/armv7/start.o
 .rel.rodata.zynq_gpio_ids
                0x04073e20       0x20 arch/arm/cpu/armv7/start.o
 .rel.rodata.gpio_zynq_ops
                0x04073e40       0x28 arch/arm/cpu/armv7/start.o
 .rel.rodata.zynqmp_gpio_def
                0x04073e68        0x8 arch/arm/cpu/armv7/start.o
 .rel.rodata.zynq_gpio_def
                0x04073e70        0x8 arch/arm/cpu/armv7/start.o
 .rel.u_boot_list_2_uclass_2_gpio
                0x04073e78       0x18 arch/arm/cpu/armv7/start.o
 .rel.u_boot_list_2_driver_2_gpio_zynq
                0x04073e90       0x28 arch/arm/cpu/armv7/start.o
 .rel.text.i2c_get_adapter
                0x04073eb8       0x18 arch/arm/cpu/armv7/start.o
 .rel.text.i2c_init_bus
                0x04073ed0       0x10 arch/arm/cpu/armv7/start.o
 .rel.text.i2c_set_bus_num
                0x04073ee0       0x18 arch/arm/cpu/armv7/start.o
 .rel.u_boot_list_2_i2c_2_zynq_0
                0x04073ef8       0x30 arch/arm/cpu/armv7/start.o
 .rel.text.find_mmc_device
                0x04073f28        0x8 arch/arm/cpu/armv7/start.o
 .rel.text.print_mmc_devices
                0x04073f30       0x38 arch/arm/cpu/armv7/start.o
 .rel.text.mmc_bind
                0x04073f68       0x10 arch/arm/cpu/armv7/start.o
 .rel.text.mmc_set_capacity
                0x04073f78       0x40 arch/arm/cpu/armv7/start.o
 .rel.text.mmc_send_status
                0x04073fb8       0x10 arch/arm/cpu/armv7/start.o
 .rel.text.mmc_bread
                0x04073fc8       0x10 arch/arm/cpu/armv7/start.o
 .rel.text.mmc_hwpart_config
                0x04073fd8       0x48 arch/arm/cpu/armv7/start.o
 .rel.text.mmc_startup
                0x04074020       0xb8 arch/arm/cpu/armv7/start.o
 .rel.text.mmc_start_init
                0x040740d8       0x10 arch/arm/cpu/armv7/start.o
 .rel.text.mmc_initialize
                0x040740e8       0x10 arch/arm/cpu/armv7/start.o
 .rel.text.arasan_sdhci_ofdata_to_platdata
                0x040740f8       0x20 arch/arm/cpu/armv7/start.o
 .rel.text.mmc_berase
                0x04074118       0x10 arch/arm/cpu/armv7/start.o
 .rel.text.mmc_bwrite
                0x04074128       0x18 arch/arm/cpu/armv7/start.o
 .rel.text.sdhci_set_clock
                0x04074140       0x18 arch/arm/cpu/armv7/start.o
 .rel.text.sdhci_reset
                0x04074158       0x10 arch/arm/cpu/armv7/start.o
 .rel.text.sdhci_send_command
                0x04074168       0x48 arch/arm/cpu/armv7/start.o
 .rel.text.sdhci_probe
                0x040741b0       0x18 arch/arm/cpu/armv7/start.o
 .rel.text.sdhci_setup_cfg
                0x040741c8       0x10 arch/arm/cpu/armv7/start.o
 .rel.rodata.mmc_blk_ops
                0x040741d8       0x20 arch/arm/cpu/armv7/start.o
 .rel.rodata.arasan_sdhci_ids
                0x040741f8        0x8 arch/arm/cpu/armv7/start.o
 .rel.rodata.sdhci_ops
                0x04074200       0x28 arch/arm/cpu/armv7/start.o
 .rel.u_boot_list_2_driver_2_mmc
                0x04074228        0x8 arch/arm/cpu/armv7/start.o
 .rel.u_boot_list_2_uclass_2_mmc
                0x04074230        0x8 arch/arm/cpu/armv7/start.o
 .rel.u_boot_list_2_driver_2_mmc_blk
                0x04074238       0x10 arch/arm/cpu/armv7/start.o
 .rel.u_boot_list_2_driver_2_arasan_sdhci_drv
                0x04074248       0x30 arch/arm/cpu/armv7/start.o
 .rel.text.__mtd_next_device
                0x00000000        0x0 arch/arm/cpu/armv7/start.o
 .rel.text.del_mtd_device
                0x00000000        0x0 arch/arm/cpu/armv7/start.o
 .rel.text.get_mtd_device
                0x00000000        0x0 arch/arm/cpu/armv7/start.o
 .rel.text.__put_mtd_device
                0x00000000        0x0 arch/arm/cpu/armv7/start.o
 .rel.text.add_mtd_device
                0x00000000        0x0 arch/arm/cpu/armv7/start.o
 .rel.text.mtd_arg_off
                0x04074278       0x10 arch/arm/cpu/armv7/start.o
 .rel.text.mtd_arg_off_size
                0x04074288       0x28 arch/arm/cpu/armv7/start.o
 .rel.text.spi_flash_probe_bus_cs
                0x040742b0       0x10 arch/arm/cpu/armv7/start.o
 .rel.text.spi_flash_std_probe
                0x040742c0        0x8 arch/arm/cpu/armv7/start.o
 .rel.text.spi_flash_write_common
                0x040742c8        0x8 arch/arm/cpu/armv7/start.o
 .rel.text.spi_flash_cmd_erase_ops
                0x040742d0        0x8 arch/arm/cpu/armv7/start.o
 .rel.text.spi_flash_cmd_write_ops
                0x040742d8        0x8 arch/arm/cpu/armv7/start.o
 .rel.text.set_quad_mode.isra.7
                0x040742e0        0x8 arch/arm/cpu/armv7/start.o
 .rel.text.spi_flash_decode_fdt
                0x040742e8        0x8 arch/arm/cpu/armv7/start.o
 .rel.text.spi_flash_scan
                0x040742f0       0x78 arch/arm/cpu/armv7/start.o
 .rel.rodata.spi_flash_std_ops
                0x04074368       0x18 arch/arm/cpu/armv7/start.o
 .rel.rodata.spi_flash_std_ids
                0x04074380        0x8 arch/arm/cpu/armv7/start.o
 .rel.rodata.spi_flash_ids
                0x04074388      0x270 arch/arm/cpu/armv7/start.o
 .rel.u_boot_list_2_uclass_2_spi_flash
                0x040745f8       0x10 arch/arm/cpu/armv7/start.o
 .rel.u_boot_list_2_driver_2_spi_flash_std
                0x04074608       0x20 arch/arm/cpu/armv7/start.o
 .rel.text.zynq_gem_send
                0x04074628       0x10 arch/arm/cpu/armv7/start.o
 .rel.text.zynq_gem_init
                0x04074638        0x8 arch/arm/cpu/armv7/start.o
 .rel.text.zynq_gem_ofdata_to_platdata
                0x04074640       0x38 arch/arm/cpu/armv7/start.o
 .rel.text.zynq_gem_recv
                0x04074678       0x18 arch/arm/cpu/armv7/start.o
 .rel.text.zynq_gem_probe
                0x04074690       0x20 arch/arm/cpu/armv7/start.o
 .rel.rodata.zynq_gem_ops
                0x040746b0       0x38 arch/arm/cpu/armv7/start.o
 .rel.rodata.zynq_gem_ids
                0x040746e8       0x18 arch/arm/cpu/armv7/start.o
 .rel.rodata.phy_interface_strings
                0x04074700       0xe0 arch/arm/cpu/armv7/start.o
 .rel.u_boot_list_2_driver_2_zynq_gem
                0x040747e0       0x30 arch/arm/cpu/armv7/start.o
 .rel.text.genphy_update_link
                0x04074810       0x28 arch/arm/cpu/armv7/start.o
 .rel.text.phy_register
                0x04074838        0x8 arch/arm/cpu/armv7/start.o
 .rel.text.get_phy_device_by_mask
                0x04074840       0x18 arch/arm/cpu/armv7/start.o
 .rel.text.phy_reset
                0x04074858        0x8 arch/arm/cpu/armv7/start.o
 .rel.text.phy_connect_dev
                0x04074860        0x8 arch/arm/cpu/armv7/start.o
 .rel.text.phy_connect
                0x04074868        0x8 arch/arm/cpu/armv7/start.o
 .rel.text.phy_get_interface_by_name
                0x04074870        0x8 arch/arm/cpu/armv7/start.o
 .rel.text.m88e1xxx_parse_status
                0x04074878       0x18 arch/arm/cpu/armv7/start.o
 .rel.text.phy_marvell_init
                0x04074890       0x50 arch/arm/cpu/armv7/start.o
 .rel.text.rtl8211x_startup
                0x040748e0       0x18 arch/arm/cpu/armv7/start.o
 .rel.text.rtl8211f_startup
                0x040748f8        0x8 arch/arm/cpu/armv7/start.o
 .rel.text.phy_realtek_init
                0x04074900       0x20 arch/arm/cpu/armv7/start.o
 .rel.text.xilinxphy_config
                0x04074920        0x8 arch/arm/cpu/armv7/start.o
 .rel.text.phy_xilinx_init
                0x04074928        0x8 arch/arm/cpu/armv7/start.o
 .rel.data.genphy_driver
                0x04074930       0x20 arch/arm/cpu/armv7/start.o
 .rel.data.phy_drivers
                0x04074950       0x10 arch/arm/cpu/armv7/start.o
 .rel.data.M88E1111S_driver
                0x04074960       0x20 arch/arm/cpu/armv7/start.o
 .rel.data.M88E1310_driver
                0x04074980       0x20 arch/arm/cpu/armv7/start.o
 .rel.data.M88E1011S_driver
                0x040749a0       0x20 arch/arm/cpu/armv7/start.o
 .rel.data.M88E1118_driver
                0x040749c0       0x20 arch/arm/cpu/armv7/start.o
 .rel.data.M88E1518_driver
                0x040749e0       0x20 arch/arm/cpu/armv7/start.o
 .rel.data.M88E1145_driver
                0x04074a00       0x20 arch/arm/cpu/armv7/start.o
 .rel.data.M88E1149S_driver
                0x04074a20       0x20 arch/arm/cpu/armv7/start.o
 .rel.data.M88E1121R_driver
                0x04074a40       0x20 arch/arm/cpu/armv7/start.o
 .rel.data.M88E1118R_driver
                0x04074a60       0x20 arch/arm/cpu/armv7/start.o
 .rel.data.M88E1510_driver
                0x04074a80       0x20 arch/arm/cpu/armv7/start.o
 .rel.data.RTL8211F_driver
                0x04074aa0       0x20 arch/arm/cpu/armv7/start.o
 .rel.data.RTL8211E_driver
                0x04074ac0       0x20 arch/arm/cpu/armv7/start.o
 .rel.data.RTL8211DN_driver
                0x04074ae0       0x20 arch/arm/cpu/armv7/start.o
 .rel.data.RTL8211B_driver
                0x04074b00       0x28 arch/arm/cpu/armv7/start.o
 .rel.data.xilinxphy_driver
                0x04074b28       0x20 arch/arm/cpu/armv7/start.o
 .rel.text.serial_post_probe
                0x04074b48       0x20 arch/arm/cpu/armv7/start.o
 .rel.text.serial_init
                0x04074b68       0x18 arch/arm/cpu/armv7/start.o
 .rel.text.on_baudrate
                0x04074b80       0x20 arch/arm/cpu/armv7/start.o
 .rel.rodata.arm_dcc_ops
                0x04074ba0       0x18 arch/arm/cpu/armv7/start.o
 .rel.rodata.arm_dcc_ids
                0x04074bb8        0x8 arch/arm/cpu/armv7/start.o
 .rel.rodata.zynq_serial_ids
                0x04074bc0       0x18 arch/arm/cpu/armv7/start.o
 .rel.rodata.zynq_serial_ops
                0x04074bd8       0x20 arch/arm/cpu/armv7/start.o
 .rel.u_boot_list_2_env_clbk_2_baudrate
                0x04074bf8       0x10 arch/arm/cpu/armv7/start.o
 .rel.u_boot_list_2_uclass_2_serial
                0x04074c08       0x18 arch/arm/cpu/armv7/start.o
 .rel.u_boot_list_2_driver_2_serial_dcc
                0x04074c20       0x18 arch/arm/cpu/armv7/start.o
 .rel.u_boot_list_2_driver_2_serial_zynq
                0x04074c38       0x28 arch/arm/cpu/armv7/start.o
 .rel.text.spi_set_speed_mode
                0x04074c60       0x10 arch/arm/cpu/armv7/start.o
 .rel.text.spi_post_probe
                0x04074c70        0x8 arch/arm/cpu/armv7/start.o
 .rel.text.spi_get_bus_and_cs
                0x04074c78       0x10 arch/arm/cpu/armv7/start.o
 .rel.text.spi_slave_ofdata_to_platdata
                0x04074c88       0x58 arch/arm/cpu/armv7/start.o
 .rel.text.zynq_qspi_fill_tx_fifo
                0x04074ce0       0x28 arch/arm/cpu/armv7/start.o
 .rel.text.zynq_qspi_ofdata_to_platdata
                0x04074d08       0x28 arch/arm/cpu/armv7/start.o
 .rel.text.zynq_qspi_xfer
                0x04074d30       0x28 arch/arm/cpu/armv7/start.o
 .rel.rodata.zynq_qspi_ops
                0x04074d58       0x28 arch/arm/cpu/armv7/start.o
 .rel.rodata.zynq_qspi_ids
                0x04074d80        0x8 arch/arm/cpu/armv7/start.o
 .rel.u_boot_list_2_uclass_2_spi_generic
                0x04074d88        0x8 arch/arm/cpu/armv7/start.o
 .rel.u_boot_list_2_driver_2_spi_generic_drv
                0x04074d90        0x8 arch/arm/cpu/armv7/start.o
 .rel.u_boot_list_2_uclass_2_spi
                0x04074d98       0x28 arch/arm/cpu/armv7/start.o
 .rel.u_boot_list_2_driver_2_zynq_qspi
                0x04074dc0       0x30 arch/arm/cpu/armv7/start.o
 .rel.text.usb_get_dr_mode
                0x00000000        0x0 arch/arm/cpu/armv7/start.o
 .rel.text.usb_get_maximum_speed
                0x00000000        0x0 arch/arm/cpu/armv7/start.o
 .rel.rodata.speed_names
                0x00000000        0x0 arch/arm/cpu/armv7/start.o
 .rel.rodata.usb_dr_modes
                0x00000000        0x0 arch/arm/cpu/armv7/start.o
 .rel.text.usb_ep_autoconfig
                0x04074df0        0x8 arch/arm/cpu/armv7/start.o
 .rel.text.usb_ep_autoconfig_reset
                0x04074df8        0x8 arch/arm/cpu/armv7/start.o
 .rel.text.ci_ep_free_request
                0x04074e00        0x8 arch/arm/cpu/armv7/start.o
 .rel.text.ci_ep_alloc_request
                0x04074e08        0x8 arch/arm/cpu/armv7/start.o
 .rel.text.ci_flush_qtd
                0x04074e10        0x8 arch/arm/cpu/armv7/start.o
 .rel.text.ci_flush_qh
                0x04074e18        0x8 arch/arm/cpu/armv7/start.o
 .rel.text.stop_activity
                0x04074e20        0x8 arch/arm/cpu/armv7/start.o
 .rel.text.ep_enable
                0x04074e28        0x8 arch/arm/cpu/armv7/start.o
 .rel.text.ci_ep_enable
                0x04074e30        0x8 arch/arm/cpu/armv7/start.o
 .rel.text.ci_ep_submit_next_request
                0x04074e38        0x8 arch/arm/cpu/armv7/start.o
 .rel.text.ci_ep_queue
                0x04074e40       0x10 arch/arm/cpu/armv7/start.o
 .rel.text.udc_irq
                0x04074e50       0x38 arch/arm/cpu/armv7/start.o
 .rel.text.usb_gadget_handle_interrupts
                0x04074e88        0x8 arch/arm/cpu/armv7/start.o
 .rel.text.udc_disconnect
                0x04074e90        0x8 arch/arm/cpu/armv7/start.o
 .rel.text.ci_pullup
                0x04074e98        0x8 arch/arm/cpu/armv7/start.o
 .rel.text.usb_gadget_register_driver
                0x04074ea0       0x30 arch/arm/cpu/armv7/start.o
 .rel.text.usb_gadget_unregister_driver
                0x04074ed0        0x8 arch/arm/cpu/armv7/start.o
 .rel.text.dfu_usb_get_reset
                0x04074ed8        0x8 arch/arm/cpu/armv7/start.o
 .rel.text.composite_suspend
                0x04074ee0        0x8 arch/arm/cpu/armv7/start.o
 .rel.text.composite_resume
                0x04074ee8        0x8 arch/arm/cpu/armv7/start.o
 .rel.text.composite_unbind
                0x04074ef0       0x28 arch/arm/cpu/armv7/start.o
 .rel.text.composite_bind
                0x04074f18       0x10 arch/arm/cpu/armv7/start.o
 .rel.text.g_dnl_do_config
                0x04074f28       0x10 arch/arm/cpu/armv7/start.o
 .rel.text.composite_disconnect
                0x04074f38        0x8 arch/arm/cpu/armv7/start.o
 .rel.text.composite_setup
                0x04074f40       0xb8 arch/arm/cpu/armv7/start.o
 .rel.text.usb_composite_register
                0x04074ff8       0x18 arch/arm/cpu/armv7/start.o
 .rel.text.usb_composite_unregister
                0x04075010       0x10 arch/arm/cpu/armv7/start.o
 .rel.text.g_dnl_set_serialnumber
                0x00000000        0x0 arch/arm/cpu/armv7/start.o
 .rel.text.g_dnl_bind
                0x04075020       0x28 arch/arm/cpu/armv7/start.o
 .rel.text.g_dnl_detach
                0x04075048        0x8 arch/arm/cpu/armv7/start.o
 .rel.text.g_dnl_trigger_detach
                0x04075050        0x8 arch/arm/cpu/armv7/start.o
 .rel.text.g_dnl_clear_detach
                0x04075058        0x8 arch/arm/cpu/armv7/start.o
 .rel.text.g_dnl_register
                0x04075060       0x18 arch/arm/cpu/armv7/start.o
 .rel.text.g_dnl_unregister
                0x04075078        0x8 arch/arm/cpu/armv7/start.o
 .rel.text.thor_rx_tx_complete
                0x04075080       0x20 arch/arm/cpu/armv7/start.o
 .rel.text.thor_func_setup
                0x040750a0       0x20 arch/arm/cpu/armv7/start.o
 .rel.text.thor_rx_data
                0x040750c0       0x20 arch/arm/cpu/armv7/start.o
 .rel.text.thor_tx_data
                0x040750e0       0x20 arch/arm/cpu/armv7/start.o
 .rel.text.send_rsp
                0x04075100        0x8 arch/arm/cpu/armv7/start.o
 .rel.text.thor_add
                0x04075108       0x30 arch/arm/cpu/armv7/start.o
 .rel.text.thor_unbind
                0x04075138        0x8 arch/arm/cpu/armv7/start.o
 .rel.text.thor_func_bind
                0x04075140       0x60 arch/arm/cpu/armv7/start.o
 .rel.text.send_data_rsp.constprop.4
                0x040751a0        0x8 arch/arm/cpu/armv7/start.o
 .rel.text.thor_start_ep
                0x040751a8        0x8 arch/arm/cpu/armv7/start.o
 .rel.text.thor_func_set_alt
                0x040751b0       0x40 arch/arm/cpu/armv7/start.o
 .rel.text.process_data
                0x040751f0      0x168 arch/arm/cpu/armv7/start.o
 .rel.text.thor_init
                0x04075358       0x48 arch/arm/cpu/armv7/start.o
 .rel.text.thor_handle
                0x040753a0       0x20 arch/arm/cpu/armv7/start.o
 .rel.text.dfu_add
                0x040753c0       0x58 arch/arm/cpu/armv7/start.o
 .rel.text.dfu_handle
                0x04075418       0x10 arch/arm/cpu/armv7/start.o
 .rel.text.dnload_request_flush
                0x04075428        0x8 arch/arm/cpu/armv7/start.o
 .rel.text.dfu_bind
                0x04075430       0x18 arch/arm/cpu/armv7/start.o
 .rel.text.handle_getstatus
                0x04075448       0x28 arch/arm/cpu/armv7/start.o
 .rel.text.state_dfu_manifest_sync
                0x04075470        0x8 arch/arm/cpu/armv7/start.o
 .rel.text.state_dfu_dnload_idle
                0x04075478       0x38 arch/arm/cpu/armv7/start.o
 .rel.text.state_app_idle
                0x040754b0        0x8 arch/arm/cpu/armv7/start.o
 .rel.text.state_dfu_upload_idle
                0x040754b8       0x28 arch/arm/cpu/armv7/start.o
 .rel.text.state_dfu_manifest
                0x040754e0        0x8 arch/arm/cpu/armv7/start.o
 .rel.text.state_dfu_idle
                0x040754e8       0x48 arch/arm/cpu/armv7/start.o
 .rel.rodata.ci_ep_init
                0x04075530       0x50 arch/arm/cpu/armv7/start.o
 .rel.rodata.dfu_state
                0x04075580       0x50 arch/arm/cpu/armv7/start.o
 .rel.data.ci_ep_ops
                0x040755d0       0x30 arch/arm/cpu/armv7/start.o
 .rel.data.ci_udc_ops
                0x04075600        0x8 arch/arm/cpu/armv7/start.o
 .rel.data.controller
                0x04075608       0x10 arch/arm/cpu/armv7/start.o
 .rel.data.g_dnl_string_tab
                0x04075618        0x8 arch/arm/cpu/armv7/start.o
 .rel.data.g_dnl_composite_strings
                0x04075620        0x8 arch/arm/cpu/armv7/start.o
 .rel.data.g_dnl_driver
                0x04075628       0x20 arch/arm/cpu/armv7/start.o
 .rel.data.composite_driver
                0x04075648       0x38 arch/arm/cpu/armv7/start.o
 .rel.data.g_dnl_string_defs
                0x04075680       0x18 arch/arm/cpu/armv7/start.o
 .rel.data.hs_thor_downloader_function
                0x04075698       0x58 arch/arm/cpu/armv7/start.o
 .rel.u_boot_list_2_g_dnl_bind_callbacks_2___usb_function_name_usb_dnl_thor
                0x040756f0       0x10 arch/arm/cpu/armv7/start.o
 .rel.data.dfu_strings
                0x04075700        0x8 arch/arm/cpu/armv7/start.o
 .rel.data.dfu_generic_strings
                0x04075708        0x8 arch/arm/cpu/armv7/start.o
 .rel.u_boot_list_2_g_dnl_bind_callbacks_2___usb_function_name_usb_dnl_dfu
                0x04075710       0x10 arch/arm/cpu/armv7/start.o
 .rel.data.dfu_runtime_descs
                0x04075720        0x8 arch/arm/cpu/armv7/start.o
 .rel.data.stringtab_dfu_generic
                0x04075728        0x8 arch/arm/cpu/armv7/start.o
 .rel.data.strings_dfu_generic
                0x04075730        0x8 arch/arm/cpu/armv7/start.o
 .rel.text.usb_child_post_bind
                0x04075738       0x10 arch/arm/cpu/armv7/start.o
 .rel.text.usb_disable_asynch
                0x04075748        0x8 arch/arm/cpu/armv7/start.o
 .rel.text.usb_stop
                0x04075750        0x8 arch/arm/cpu/armv7/start.o
 .rel.text.usb_scan_device
                0x04075758       0x20 arch/arm/cpu/armv7/start.o
 .rel.text.usb_scan_bus.isra.2
                0x04075778       0x20 arch/arm/cpu/armv7/start.o
 .rel.text.usb_init
                0x04075798       0x38 arch/arm/cpu/armv7/start.o
 .rel.text.ehci_td_buffer
                0x040757d0        0x8 arch/arm/cpu/armv7/start.o
 .rel.text.ehci_shutdown
                0x040757d8        0x8 arch/arm/cpu/armv7/start.o
 .rel.text.disable_periodic.isra.0
                0x040757e0        0x8 arch/arm/cpu/armv7/start.o
 .rel.text.enable_periodic.isra.1
                0x040757e8        0x8 arch/arm/cpu/armv7/start.o
 .rel.text._ehci_destroy_int_queue
                0x040757f0        0x8 arch/arm/cpu/armv7/start.o
 .rel.text.ehci_submit_async
                0x040757f8       0x30 arch/arm/cpu/armv7/start.o
 .rel.text._ehci_create_int_queue.isra.4
                0x04075828       0x10 arch/arm/cpu/armv7/start.o
 .rel.text.ehci_submit_int_msg
                0x04075838        0x8 arch/arm/cpu/armv7/start.o
 .rel.text.ehci_submit_control_msg
                0x04075840       0x28 arch/arm/cpu/armv7/start.o
 .rel.text.ehci_register
                0x04075868       0x38 arch/arm/cpu/armv7/start.o
 .rel.text.ehci_zynq_probe
                0x040758a0        0x8 arch/arm/cpu/armv7/start.o
 .rel.rodata.default_ehci_ops
                0x00000000        0x0 arch/arm/cpu/armv7/start.o
 .rel.rodata.ehci_zynq_ids
                0x040758a8        0x8 arch/arm/cpu/armv7/start.o
 .rel.u_boot_list_2_uclass_2_usb_dev_generic
                0x040758b0        0x8 arch/arm/cpu/armv7/start.o
 .rel.u_boot_list_2_driver_2_usb_dev_generic_drv
                0x040758b8        0x8 arch/arm/cpu/armv7/start.o
 .rel.u_boot_list_2_uclass_2_usb
                0x040758c0       0x20 arch/arm/cpu/armv7/start.o
 .rel.data.ehci_usb_ops
                0x040758e0       0x30 arch/arm/cpu/armv7/start.o
 .rel.u_boot_list_2_driver_2_ehci_zynq
                0x04075910       0x30 arch/arm/cpu/armv7/start.o
 .rel.text.ulpi_init
                0x04075940        0x8 arch/arm/cpu/armv7/start.o
 .rel.text.ulpi_select_transceiver
                0x00000000        0x0 arch/arm/cpu/armv7/start.o
 .rel.text.ulpi_opmode_sel
                0x00000000        0x0 arch/arm/cpu/armv7/start.o
 .rel.text.ulpi_serial_mode_enable
                0x00000000        0x0 arch/arm/cpu/armv7/start.o
 .rel.text.ulpi_suspend
                0x00000000        0x0 arch/arm/cpu/armv7/start.o
 .rel.text.__ulpi_reset_wait
                0x00000000        0x0 arch/arm/cpu/armv7/start.o
 .rel.text.ulpi_reset
                0x00000000        0x0 arch/arm/cpu/armv7/start.o
 .rel.text.ulpi_wakeup
                0x04075948        0x8 arch/arm/cpu/armv7/start.o
 .rel.text.ulpi_request.part.1
                0x04075950        0x8 arch/arm/cpu/armv7/start.o
 .rel.text.fs_probe_unsupported
                0x04075958        0x8 arch/arm/cpu/armv7/start.o
 .rel.text.fs_get_info
                0x04075960        0x8 arch/arm/cpu/armv7/start.o
 .rel.text.fs_close
                0x04075968        0x8 arch/arm/cpu/armv7/start.o
 .rel.text.fs_set_blk_dev
                0x04075970       0x28 arch/arm/cpu/armv7/start.o
 .rel.text.fs_uuid
                0x00000000        0x0 arch/arm/cpu/armv7/start.o
 .rel.text.fs_ls
                0x04075998        0x8 arch/arm/cpu/armv7/start.o
 .rel.text.fs_exists
                0x040759a0        0x8 arch/arm/cpu/armv7/start.o
 .rel.text.fs_size
                0x040759a8        0x8 arch/arm/cpu/armv7/start.o
 .rel.text.fs_read
                0x040759b0       0x10 arch/arm/cpu/armv7/start.o
 .rel.text.fs_write
                0x040759c0       0x10 arch/arm/cpu/armv7/start.o
 .rel.text.do_size
                0x040759d0        0x8 arch/arm/cpu/armv7/start.o
 .rel.text.do_load
                0x040759d8       0x50 arch/arm/cpu/armv7/start.o
 .rel.text.do_ls
                0x04075a28        0x8 arch/arm/cpu/armv7/start.o
 .rel.text.do_save
                0x04075a30       0x28 arch/arm/cpu/armv7/start.o
 .rel.text.do_fs_uuid
                0x00000000        0x0 arch/arm/cpu/armv7/start.o
 .rel.text.do_fs_type
                0x04075a58       0x10 arch/arm/cpu/armv7/start.o
 .rel.text.get_fs
                0x04075a68        0x8 arch/arm/cpu/armv7/start.o
 .rel.text.ext4fs_free_node
                0x04075a70        0x8 arch/arm/cpu/armv7/start.o
 .rel.text.ext4fs_read_file
                0x04075a78        0x8 arch/arm/cpu/armv7/start.o
 .rel.text.ext4fs_ls
                0x04075a80       0x10 arch/arm/cpu/armv7/start.o
 .rel.text.ext4fs_read
                0x04075a90       0x10 arch/arm/cpu/armv7/start.o
 .rel.text.ext4_read_file
                0x04075aa0        0x8 arch/arm/cpu/armv7/start.o
 .rel.text.ext4fs_uuid
                0x04075aa8        0x8 arch/arm/cpu/armv7/start.o
 .rel.text.put_ext4
                0x04075ab0       0x20 arch/arm/cpu/armv7/start.o
 .rel.text.ext4fs_set_block_bmap
                0x04075ad0        0x8 arch/arm/cpu/armv7/start.o
 .rel.text.ext4fs_reset_block_bmap
                0x04075ad8        0x8 arch/arm/cpu/armv7/start.o
 .rel.text.ext4fs_set_inode_bmap
                0x04075ae0        0x8 arch/arm/cpu/armv7/start.o
 .rel.text.ext4fs_reset_inode_bmap
                0x04075ae8        0x8 arch/arm/cpu/armv7/start.o
 .rel.text.ext4fs_get_new_blk_no
                0x04075af0       0x10 arch/arm/cpu/armv7/start.o
 .rel.text.ext4fs_get_new_inode_no
                0x04075b00       0x10 arch/arm/cpu/armv7/start.o
 .rel.text.ext4fs_allocate_blocks
                0x04075b10       0x30 arch/arm/cpu/armv7/start.o
 .rel.text.ext4fs_iget
                0x04075b40        0x8 arch/arm/cpu/armv7/start.o
 .rel.text.read_allocated_block
                0x04075b48       0xb0 arch/arm/cpu/armv7/start.o
 .rel.text.ext4fs_update_parent_dentry
                0x04075bf8       0x48 arch/arm/cpu/armv7/start.o
 .rel.text.search_dir
                0x04075c40        0x8 arch/arm/cpu/armv7/start.o
 .rel.text.ext4fs_get_parent_inode_num
                0x04075c48       0x28 arch/arm/cpu/armv7/start.o
 .rel.text.ext4fs_filename_unlink
                0x04075c70       0x18 arch/arm/cpu/armv7/start.o
 .rel.text.ext4fs_reinit_global
                0x04075c88       0x48 arch/arm/cpu/armv7/start.o
 .rel.text.ext4fs_close
                0x04075cd0       0x10 arch/arm/cpu/armv7/start.o
 .rel.text.ext4fs_iterate_dir
                0x04075ce0       0x30 arch/arm/cpu/armv7/start.o
 .rel.text.ext4fs_find_file1
                0x04075d10       0x10 arch/arm/cpu/armv7/start.o
 .rel.text.ext4fs_find_file
                0x04075d20        0x8 arch/arm/cpu/armv7/start.o
 .rel.text.ext4fs_open
                0x04075d28       0x10 arch/arm/cpu/armv7/start.o
 .rel.text.ext4fs_mount
                0x04075d38       0x10 arch/arm/cpu/armv7/start.o
 .rel.text.ext4fs_set_blk_dev
                0x04075d48       0x18 arch/arm/cpu/armv7/start.o
 .rel.text.ext4fs_devread
                0x04075d60       0x40 arch/arm/cpu/armv7/start.o
 .rel.text.ext4fs_update
                0x04075da0       0x10 arch/arm/cpu/armv7/start.o
 .rel.text.ext4fs_get_bgdtable
                0x04075db0        0x8 arch/arm/cpu/armv7/start.o
 .rel.text.ext4fs_deinit
                0x04075db8        0x8 arch/arm/cpu/armv7/start.o
 .rel.text.ext4fs_init
                0x04075dc0       0x10 arch/arm/cpu/armv7/start.o
 .rel.text.ext4fs_write
                0x04075dd0       0x68 arch/arm/cpu/armv7/start.o
 .rel.text.ext4_write_file
                0x04075e38       0x10 arch/arm/cpu/armv7/start.o
 .rel.text.ext4fs_dump_metadata
                0x04075e48        0x8 arch/arm/cpu/armv7/start.o
 .rel.text.ext4fs_free_journal
                0x04075e50       0x28 arch/arm/cpu/armv7/start.o
 .rel.text.ext4fs_log_gdt
                0x04075e78       0x10 arch/arm/cpu/armv7/start.o
 .rel.text.ext4fs_log_journal
                0x04075e88       0x20 arch/arm/cpu/armv7/start.o
 .rel.text.ext4fs_put_metadata
                0x04075ea8       0x20 arch/arm/cpu/armv7/start.o
 .rel.text.print_revoke_blks
                0x00000000        0x0 arch/arm/cpu/armv7/start.o
 .rel.text.ext4fs_push_revoke_blk
                0x04075ec8       0x28 arch/arm/cpu/armv7/start.o
 .rel.text.ext4fs_free_revoke_blks
                0x04075ef0       0x18 arch/arm/cpu/armv7/start.o
 .rel.text.check_blknr_for_revoke
                0x04075f08        0x8 arch/arm/cpu/armv7/start.o
 .rel.text.recover_transaction
                0x04075f10       0x10 arch/arm/cpu/armv7/start.o
 .rel.text.print_jrnl_status
                0x04075f20       0x10 arch/arm/cpu/armv7/start.o
 .rel.text.ext4fs_check_journal_state
                0x04075f30       0x18 arch/arm/cpu/armv7/start.o
 .rel.text.ext4fs_init_journal
                0x04075f48       0x38 arch/arm/cpu/armv7/start.o
 .rel.text.ext4fs_update_journal
                0x04075f80       0x20 arch/arm/cpu/armv7/start.o
 .rel.text.ext2fs_crc16
                0x04075fa0        0x8 arch/arm/cpu/armv7/start.o
 .rel.text.downcase
                0x04075fa8        0x8 arch/arm/cpu/armv7/start.o
 .rel.text.disk_read
                0x04075fb0       0x10 arch/arm/cpu/armv7/start.o
 .rel.text.get_cluster
                0x04075fc0        0x8 arch/arm/cpu/armv7/start.o
 .rel.text.read_bootsectandvi
                0x04075fc8       0x20 arch/arm/cpu/armv7/start.o
 .rel.text.disk_write
                0x04075fe8       0x20 arch/arm/cpu/armv7/start.o
 .rel.text.flush_dirty_fat_buffer
                0x04076008        0x8 arch/arm/cpu/armv7/start.o
 .rel.text.get_fatent
                0x04076010        0x8 arch/arm/cpu/armv7/start.o
 .rel.text.set_cluster
                0x04076018        0x8 arch/arm/cpu/armv7/start.o
 .rel.text.set_name
                0x04076020        0x8 arch/arm/cpu/armv7/start.o
 .rel.text.check_overflow
                0x04076028       0x10 arch/arm/cpu/armv7/start.o
 .rel.text.get_vfatname
                0x04076038       0x10 arch/arm/cpu/armv7/start.o
 .rel.text.flush_dir_table.constprop.8
                0x04076048       0x20 arch/arm/cpu/armv7/start.o
 .rel.text.do_fat_write
                0x04076068       0x80 arch/arm/cpu/armv7/start.o
 .rel.text.fat_set_blk_dev
                0x040760e8       0x28 arch/arm/cpu/armv7/start.o
 .rel.text.fat_register_device
                0x00000000        0x0 arch/arm/cpu/armv7/start.o
 .rel.text.do_fat_read_at
                0x04076110       0x58 arch/arm/cpu/armv7/start.o
 .rel.text.file_fat_detectfs
                0x04076168       0xb0 arch/arm/cpu/armv7/start.o
 .rel.text.file_fat_read_at
                0x04076218        0x8 arch/arm/cpu/armv7/start.o
 .rel.text.fat_read_file
                0x04076220        0x8 arch/arm/cpu/armv7/start.o
 .rel.text.file_fat_write
                0x04076228       0x10 arch/arm/cpu/armv7/start.o
 .rel.text.file_getfsname
                0x00000000        0x0 arch/arm/cpu/armv7/start.o
 .rel.text.file_cd
                0x00000000        0x0 arch/arm/cpu/armv7/start.o
 .rel.text.file_detectfs
                0x00000000        0x0 arch/arm/cpu/armv7/start.o
 .rel.text.file_ls
                0x00000000        0x0 arch/arm/cpu/armv7/start.o
 .rel.text.file_read
                0x00000000        0x0 arch/arm/cpu/armv7/start.o
 .rel.rodata.filesystems
                0x00000000        0x0 arch/arm/cpu/armv7/start.o
 .rel.data.fstypes
                0x04076238       0xd8 arch/arm/cpu/armv7/start.o
 .rel.text.efi_load_pe
                0x04076310       0x88 arch/arm/cpu/armv7/start.o
 .rel.text.efi_save_gd
                0x04076398        0x8 arch/arm/cpu/armv7/start.o
 .rel.text.efi_restore_gd
                0x040763a0       0x10 arch/arm/cpu/armv7/start.o
 .rel.text.efi_allocate_pages_ext
                0x040763b0        0x8 arch/arm/cpu/armv7/start.o
 .rel.text.efi_free_pages_ext
                0x040763b8        0x8 arch/arm/cpu/armv7/start.o
 .rel.text.efi_get_memory_map_ext
                0x040763c0        0x8 arch/arm/cpu/armv7/start.o
 .rel.text.efi_calculate_crc32
                0x040763c8        0x8 arch/arm/cpu/armv7/start.o
 .rel.text.efi_uninstall_multiple_protocol_interfaces
                0x040763d0        0x8 arch/arm/cpu/armv7/start.o
 .rel.text.efi_install_multiple_protocol_interfaces
                0x040763d8        0x8 arch/arm/cpu/armv7/start.o
 .rel.text.efi_locate_protocol
                0x040763e0       0x18 arch/arm/cpu/armv7/start.o
 .rel.text.efi_locate_handle_buffer
                0x040763f8        0x8 arch/arm/cpu/armv7/start.o
 .rel.text.efi_protocols_per_handle
                0x04076400        0x8 arch/arm/cpu/armv7/start.o
 .rel.text.efi_open_protocol_information
                0x04076408        0x8 arch/arm/cpu/armv7/start.o
 .rel.text.efi_close_protocol
                0x04076410        0x8 arch/arm/cpu/armv7/start.o
 .rel.text.efi_open_protocol
                0x04076418       0x10 arch/arm/cpu/armv7/start.o
 .rel.text.efi_disconnect_controller
                0x04076428        0x8 arch/arm/cpu/armv7/start.o
 .rel.text.efi_connect_controller
                0x04076430        0x8 arch/arm/cpu/armv7/start.o
 .rel.text.efi_set_watchdog_timer
                0x04076438        0x8 arch/arm/cpu/armv7/start.o
 .rel.text.efi_stall
                0x04076440        0x8 arch/arm/cpu/armv7/start.o
 .rel.text.efi_get_next_monotonic_count
                0x04076448       0x10 arch/arm/cpu/armv7/start.o
 .rel.text.efi_exit_boot_services
                0x04076458       0x10 arch/arm/cpu/armv7/start.o
 .rel.text.efi_unload_image
                0x04076468       0x10 arch/arm/cpu/armv7/start.o
 .rel.text.efi_start_image
                0x04076478       0x18 arch/arm/cpu/armv7/start.o
 .rel.text.efi_load_image
                0x04076490       0x18 arch/arm/cpu/armv7/start.o
 .rel.text.efi_locate_device_path
                0x040764a8        0x8 arch/arm/cpu/armv7/start.o
 .rel.text.efi_locate_handle
                0x040764b0       0x10 arch/arm/cpu/armv7/start.o
 .rel.text.efi_register_protocol_notify
                0x040764c0        0x8 arch/arm/cpu/armv7/start.o
 .rel.text.efi_uninstall_protocol_interface
                0x040764c8        0x8 arch/arm/cpu/armv7/start.o
 .rel.text.efi_reinstall_protocol_interface
                0x040764d0        0x8 arch/arm/cpu/armv7/start.o
 .rel.text.efi_install_protocol_interface
                0x040764d8        0x8 arch/arm/cpu/armv7/start.o
 .rel.text.efi_check_event
                0x040764e0        0x8 arch/arm/cpu/armv7/start.o
 .rel.text.efi_close_event
                0x040764e8       0x10 arch/arm/cpu/armv7/start.o
 .rel.text.efi_signal_event
                0x040764f8        0x8 arch/arm/cpu/armv7/start.o
 .rel.text.efi_set_timer
                0x04076500       0x18 arch/arm/cpu/armv7/start.o
 .rel.text.efi_create_event
                0x04076518       0x10 arch/arm/cpu/armv7/start.o
 .rel.text.efi_free_pool_ext
                0x04076528        0x8 arch/arm/cpu/armv7/start.o
 .rel.text.efi_allocate_pool_ext
                0x04076530        0x8 arch/arm/cpu/armv7/start.o
 .rel.text.efi_restore_tpl
                0x04076538        0x8 arch/arm/cpu/armv7/start.o
 .rel.text.efi_raise_tpl
                0x04076540        0x8 arch/arm/cpu/armv7/start.o
 .rel.text.efi_exit_func
                0x04076548        0x8 arch/arm/cpu/armv7/start.o
 .rel.text.efi_timer_check
                0x04076550        0x8 arch/arm/cpu/armv7/start.o
 .rel.text.efi_wait_for_event
                0x04076558       0x10 arch/arm/cpu/armv7/start.o
 .rel.text.efi_install_configuration_table
                0x04076568        0x8 arch/arm/cpu/armv7/start.o
 .rel.text.efi_install_configuration_table_ext
                0x04076570        0x8 arch/arm/cpu/armv7/start.o
 .rel.text.efi_runtime_relocate
                0x04076578       0x28 arch/arm/cpu/armv7/start.o
 .rel.text.efi_set_virtual_address_map
                0x040765a0       0x18 arch/arm/cpu/armv7/start.o
 .rel.text.efi_add_runtime_mmio
                0x00000000        0x0 arch/arm/cpu/armv7/start.o
 .rel.text.efi_cout_enable_cursor
                0x040765b8        0x8 arch/arm/cpu/armv7/start.o
 .rel.text.efi_cout_set_cursor_position
                0x040765c0       0x10 arch/arm/cpu/armv7/start.o
 .rel.text.efi_cout_clear_screen
                0x040765d0        0x8 arch/arm/cpu/armv7/start.o
 .rel.text.efi_cout_output_string
                0x040765d8       0x10 arch/arm/cpu/armv7/start.o
 .rel.text.efi_cout_set_mode
                0x040765e8        0x8 arch/arm/cpu/armv7/start.o
 .rel.text.efi_cout_query_mode
                0x040765f0       0x20 arch/arm/cpu/armv7/start.o
 .rel.text.efi_find_free_memory
                0x04076610        0x8 arch/arm/cpu/armv7/start.o
 .rel.text.efi_add_memory_map
                0x04076618       0x10 arch/arm/cpu/armv7/start.o
 .rel.text.efi_get_memory_map
                0x04076628        0x8 arch/arm/cpu/armv7/start.o
 .rel.text.efi_memory_init
                0x04076630       0x10 arch/arm/cpu/armv7/start.o
 .rel.text.efi_disk_register
                0x04076640       0x58 arch/arm/cpu/armv7/start.o
 .rel.text.efi_net_push
                0x04076698        0x8 arch/arm/cpu/armv7/start.o
 .rel.text.efi_net_get_status
                0x040766a0        0x8 arch/arm/cpu/armv7/start.o
 .rel.text.efi_net_receive
                0x040766a8       0x28 arch/arm/cpu/armv7/start.o
 .rel.text.efi_net_transmit
                0x040766d0        0x8 arch/arm/cpu/armv7/start.o
 .rel.text.efi_net_set_dhcp_ack
                0x040766d8        0x8 arch/arm/cpu/armv7/start.o
 .rel.text.efi_net_register
                0x040766e0       0xa8 arch/arm/cpu/armv7/start.o
 .rel.text.efi_smbios_register
                0x04076788        0x8 arch/arm/cpu/armv7/start.o
 .rel.text.inflate_fast
                0x04076790       0x18 arch/arm/cpu/armv7/start.o
 .rel.text.inflate_table
                0x040767a8       0x20 arch/arm/cpu/armv7/start.o
 .rel.text.inflateInit2_
                0x040767c8       0x10 arch/arm/cpu/armv7/start.o
 .rel.text.inflate
                0x040767d8      0x188 arch/arm/cpu/armv7/start.o
 .rel.text.fdt_next_tag
                0x04076960       0x48 arch/arm/cpu/armv7/start.o
 .rel.text.fdt_get_phandle
                0x040769a8       0x10 arch/arm/cpu/armv7/start.o
 .rel.text.fdt_get_alias_namelen
                0x040769b8        0x8 arch/arm/cpu/armv7/start.o
 .rel.text.fdt_node_check_compatible
                0x040769c0        0x8 arch/arm/cpu/armv7/start.o
 .rel.text.fdt_strerror
                0x040769c8       0x20 arch/arm/cpu/armv7/start.o
 .rel.text.fdt_find_regions
                0x040769e8       0x48 arch/arm/cpu/armv7/start.o
 .rel.text.fdt_create_empty_tree
                0x00000000        0x0 arch/arm/cpu/armv7/start.o
 .rel.text.fdt_address_cells
                0x04076a30        0x8 arch/arm/cpu/armv7/start.o
 .rel.text.fdt_size_cells
                0x04076a38        0x8 arch/arm/cpu/armv7/start.o
 .rel.text.fdt_add_alias_regions
                0x00000000        0x0 arch/arm/cpu/armv7/start.o
 .rel.text.fdt_next_region
                0x00000000        0x0 arch/arm/cpu/armv7/start.o
 .rel.text.crc7
                0x00000000        0x0 arch/arm/cpu/armv7/start.o
 .rel.text.crc16_ccitt
                0x04076a40        0x8 arch/arm/cpu/armv7/start.o
 .rel.text.zunzip
                0x04076a48       0x28 arch/arm/cpu/armv7/start.o
 .rel.text.gunzip
                0x04076a70       0x10 arch/arm/cpu/armv7/start.o
 .rel.text.smbios_write_type3
                0x04076a80        0x8 arch/arm/cpu/armv7/start.o
 .rel.text.smbios_write_type2
                0x04076a88       0x10 arch/arm/cpu/armv7/start.o
 .rel.text.smbios_write_type0
                0x04076a98       0x18 arch/arm/cpu/armv7/start.o
 .rel.text.smbios_write_type1
                0x04076ab0       0x18 arch/arm/cpu/armv7/start.o
 .rel.text.smbios_write_type4
                0x04076ac8        0x8 arch/arm/cpu/armv7/start.o
 .rel.text.write_smbios_table
                0x04076ad0       0x18 arch/arm/cpu/armv7/start.o
 .rel.text.initcall_run_list
                0x04076ae8        0x8 arch/arm/cpu/armv7/start.o
 .rel.text.lmb_alloc_base
                0x04076af0        0x8 arch/arm/cpu/armv7/start.o
 .rel.text.list_sort
                0x04076af8        0x8 arch/arm/cpu/armv7/start.o
 .rel.text.rsa_verify_with_keynode
                0x04076b00       0x30 arch/arm/cpu/armv7/start.o
 .rel.text.rsa_verify
                0x04076b30       0x10 arch/arm/cpu/armv7/start.o
 .rel.text.sha1_finish
                0x04076b40        0x8 arch/arm/cpu/armv7/start.o
 .rel.text.sha256_finish
                0x04076b48        0x8 arch/arm/cpu/armv7/start.o
 .rel.text.fdtdec_get_compatible
                0x00000000        0x0 arch/arm/cpu/armv7/start.o
 .rel.text.fdtdec_get_is_enabled
                0x04076b50       0x10 arch/arm/cpu/armv7/start.o
 .rel.text.fdtdec_lookup
                0x00000000        0x0 arch/arm/cpu/armv7/start.o
 .rel.text.fdtdec_next_compatible
                0x00000000        0x0 arch/arm/cpu/armv7/start.o
 .rel.text.fdtdec_next_compatible_subnode
                0x00000000        0x0 arch/arm/cpu/armv7/start.o
 .rel.text.fdtdec_next_alias
                0x00000000        0x0 arch/arm/cpu/armv7/start.o
 .rel.text.fdtdec_add_aliases_for_id
                0x00000000        0x0 arch/arm/cpu/armv7/start.o
 .rel.text.fdtdec_get_alias_seq
                0x04076b60        0x8 arch/arm/cpu/armv7/start.o
 .rel.text.fdtdec_get_chosen_prop
                0x04076b68        0x8 arch/arm/cpu/armv7/start.o
 .rel.text.fdtdec_prepare_fdt
                0x04076b70        0x8 arch/arm/cpu/armv7/start.o
 .rel.text.fdtdec_get_config_int
                0x04076b78        0x8 arch/arm/cpu/armv7/start.o
 .rel.text.fdtdec_get_config_bool
                0x00000000        0x0 arch/arm/cpu/armv7/start.o
 .rel.text.fdtdec_get_config_string
                0x04076b80        0x8 arch/arm/cpu/armv7/start.o
 .rel.text.fdtdec_read_fmap_entry
                0x00000000        0x0 arch/arm/cpu/armv7/start.o
 .rel.text.fdtdec_decode_memory_region
                0x00000000        0x0 arch/arm/cpu/armv7/start.o
 .rel.text.fdtdec_decode_display_timing
                0x00000000        0x0 arch/arm/cpu/armv7/start.o
 .rel.text.fdtdec_setup_memory_size
                0x04076b88       0x10 arch/arm/cpu/armv7/start.o
 .rel.text.fdtdec_setup_memory_banksize
                0x04076b98       0x10 arch/arm/cpu/armv7/start.o
 .rel.text.fdtdec_setup
                0x04076ba8       0x10 arch/arm/cpu/armv7/start.o
 .rel.text.match_string
                0x04076bb8        0x8 arch/arm/cpu/armv7/start.o
 .rel.text.match_entry
                0x04076bc0        0x8 arch/arm/cpu/armv7/start.o
 .rel.text.hcreate_r
                0x04076bc8        0x8 arch/arm/cpu/armv7/start.o
 .rel.text.hdestroy_r
                0x04076bd0        0x8 arch/arm/cpu/armv7/start.o
 .rel.text.hmatch_r
                0x04076bd8        0x8 arch/arm/cpu/armv7/start.o
 .rel.text.hsearch_r
                0x04076be0        0x8 arch/arm/cpu/armv7/start.o
 .rel.text.hdelete_r
                0x04076be8        0x8 arch/arm/cpu/armv7/start.o
 .rel.text.hexport_r
                0x04076bf0       0x18 arch/arm/cpu/armv7/start.o
 .rel.text.himport_r
                0x04076c08       0x20 arch/arm/cpu/armv7/start.o
 .rel.text.display_options
                0x04076c28       0x10 arch/arm/cpu/armv7/start.o
 .rel.text.print_freq
                0x00000000        0x0 arch/arm/cpu/armv7/start.o
 .rel.text.print_size
                0x04076c38       0x28 arch/arm/cpu/armv7/start.o
 .rel.text.print_buffer
                0x04076c60       0x28 arch/arm/cpu/armv7/start.o
 .rel.text.crc32_no_comp
                0x04076c88        0x8 arch/arm/cpu/armv7/start.o
 .rel.text.hang
                0x04076c90        0x8 arch/arm/cpu/armv7/start.o
 .rel.text.skip_spaces
                0x04076c98        0x8 arch/arm/cpu/armv7/start.o
 .rel.text.strim
                0x04076ca0        0x8 arch/arm/cpu/armv7/start.o
 .rel.text.emit
                0x04076ca8        0x8 arch/arm/cpu/armv7/start.o
 .rel.text.store_char_in_data
                0x04076cb0        0x8 arch/arm/cpu/armv7/start.o
 .rel.text.match
                0x04076cb8       0x98 arch/arm/cpu/armv7/start.o
 .rel.text.fixup_branch.part.0
                0x04076d50        0x8 arch/arm/cpu/armv7/start.o
 .rel.text.quantifier
                0x04076d58        0x8 arch/arm/cpu/armv7/start.o
 .rel.text.compile
                0x04076d60       0x28 arch/arm/cpu/armv7/start.o
 .rel.text.strncasecmp
                0x04076d88        0x8 arch/arm/cpu/armv7/start.o
 .rel.text.strtok
                0x04076d90        0x8 arch/arm/cpu/armv7/start.o
 .rel.text.rand
                0x00000000        0x0 arch/arm/cpu/armv7/start.o
 .rel.text.srand
                0x00000000        0x0 arch/arm/cpu/armv7/start.o
 .rel.text.string
                0x04076d98        0x8 arch/arm/cpu/armv7/start.o
 .rel.text.number
                0x04076da0        0x8 arch/arm/cpu/armv7/start.o
 .rel.text.vsnprintf_internal
                0x04076da8       0x10 arch/arm/cpu/armv7/start.o
 .rel.text.__assert_fail
                0x00000000        0x0 arch/arm/cpu/armv7/start.o
 .rel.text.simple_itoa
                0x04076db8        0x8 arch/arm/cpu/armv7/start.o
 .rel.text.print_grouped_ull
                0x00000000        0x0 arch/arm/cpu/armv7/start.o
 .rel.text.simple_strtoul
                0x04076dc0        0x8 arch/arm/cpu/armv7/start.o
 .rel.text.simple_strtoull
                0x04076dc8        0x8 arch/arm/cpu/armv7/start.o
 .rel.text.trailing_strtoln
                0x04076dd0        0x8 arch/arm/cpu/armv7/start.o
 .rel.text.strmhz
                0x00000000        0x0 arch/arm/cpu/armv7/start.o
 .rel.rodata.efi_boot_services
                0x04076dd8      0x150 arch/arm/cpu/armv7/start.o
 .rel.rodata.efi_runtime_detach_list
                0x04076f28       0x50 arch/arm/cpu/armv7/start.o
 .rel.rodata.efi_con_out
                0x04076f78       0x50 arch/arm/cpu/armv7/start.o
 .rel.rodata.efi_console_control
                0x04076fc8       0x18 arch/arm/cpu/armv7/start.o
 .rel.rodata.efi_con_in
                0x04076fe0       0x10 arch/arm/cpu/armv7/start.o
 .rel.rodata.z_errmsg
                0x00000000        0x0 arch/arm/cpu/armv7/start.o
 .rel.rodata.fdt_errtable
                0x04076ff0       0x70 arch/arm/cpu/armv7/start.o
 .rel.rodata.smbios_write_funcs
                0x04077060       0x38 arch/arm/cpu/armv7/start.o
 .rel.rodata.compat_names
                0x00000000        0x0 arch/arm/cpu/armv7/start.o
 .rel.data.loaded_image_info_obj.9017
                0x04077098       0x10 arch/arm/cpu/armv7/start.o
 .relefi_runtime_data
                0x040770a8       0x90 arch/arm/cpu/armv7/start.o
 .rel.data.efi_obj_list
                0x04077138       0x10 arch/arm/cpu/armv7/start.o
 .rel.data.efi_runtime_mmio
                0x04077148       0x10 arch/arm/cpu/armv7/start.o
 .rel.data.efi_mem
                0x04077158       0x10 arch/arm/cpu/armv7/start.o
 .rel.data.current
                0x00000000        0x0 arch/arm/cpu/armv7/start.o
 .rel.text.arp_init
                0x04077168       0x30 arch/arm/cpu/armv7/start.o
 .rel.text.arp_raw_request
                0x04077198       0x18 arch/arm/cpu/armv7/start.o
 .rel.text.arp_request
                0x040771b0       0x38 arch/arm/cpu/armv7/start.o
 .rel.text.arp_timeout_check
                0x040771e8       0x28 arch/arm/cpu/armv7/start.o
 .rel.text.arp_receive
                0x04077210       0x40 arch/arm/cpu/armv7/start.o
 .rel.text.dhcp_extended
                0x04077250       0x18 arch/arm/cpu/armv7/start.o
 .rel.text.dhcp_process_options
                0x04077268       0x68 arch/arm/cpu/armv7/start.o
 .rel.text.dhcp_packet_process_options
                0x040772d0        0x8 arch/arm/cpu/armv7/start.o
 .rel.text.dhcp_handler
                0x040772d8       0x90 arch/arm/cpu/armv7/start.o
 .rel.text.bootp_reset
                0x04077368       0x20 arch/arm/cpu/armv7/start.o
 .rel.text.bootp_request
                0x04077388       0x78 arch/arm/cpu/armv7/start.o
 .rel.text.bootp_timeout_handler
                0x04077400       0x30 arch/arm/cpu/armv7/start.o
 .rel.text.eth_write_hwaddr
                0x04077430       0x10 arch/arm/cpu/armv7/start.o
 .rel.text.eth_post_probe
                0x04077440       0x30 arch/arm/cpu/armv7/start.o
 .rel.text.eth_post_bind
                0x04077470        0x8 arch/arm/cpu/armv7/start.o
 .rel.text.eth_get_dev
                0x04077478        0x8 arch/arm/cpu/armv7/start.o
 .rel.text.eth_set_dev
                0x04077480        0x8 arch/arm/cpu/armv7/start.o
 .rel.text.eth_get_dev_by_name
                0x04077488        0x8 arch/arm/cpu/armv7/start.o
 .rel.text.eth_init
                0x04077490       0x28 arch/arm/cpu/armv7/start.o
 .rel.text.eth_initialize
                0x040774b8       0x28 arch/arm/cpu/armv7/start.o
 .rel.text.eth_setenv_enetaddr
                0x040774e0        0x8 arch/arm/cpu/armv7/start.o
 .rel.text.eth_getenv_enetaddr_by_index
                0x040774e8       0x10 arch/arm/cpu/armv7/start.o
 .rel.text.eth_setenv_enetaddr_by_index
                0x040774f8       0x10 arch/arm/cpu/armv7/start.o
 .rel.text.eth_mac_skip
                0x04077508       0x10 arch/arm/cpu/armv7/start.o
 .rel.text.eth_get_name
                0x04077518        0x8 arch/arm/cpu/armv7/start.o
 .rel.text.eth_current_changed
                0x04077520       0x18 arch/arm/cpu/armv7/start.o
 .rel.text.eth_try_another
                0x04077538       0x20 arch/arm/cpu/armv7/start.o
 .rel.text.eth_set_current
                0x04077558       0x20 arch/arm/cpu/armv7/start.o
 .rel.text.start_again_timeout_handler
                0x04077578        0x8 arch/arm/cpu/armv7/start.o
 .rel.text.on_ipaddr
                0x04077580        0x8 arch/arm/cpu/armv7/start.o
 .rel.text.on_gatewayip
                0x04077588        0x8 arch/arm/cpu/armv7/start.o
 .rel.text.on_netmask
                0x04077590        0x8 arch/arm/cpu/armv7/start.o
 .rel.text.on_serverip
                0x04077598        0x8 arch/arm/cpu/armv7/start.o
 .rel.text.net_init_loop
                0x040775a0        0x8 arch/arm/cpu/armv7/start.o
 .rel.text.net_clear_handlers
                0x040775a8       0x20 arch/arm/cpu/armv7/start.o
 .rel.text.net_auto_load
                0x040775c8       0x18 arch/arm/cpu/armv7/start.o
 .rel.text.net_init
                0x040775e0       0x20 arch/arm/cpu/armv7/start.o
 .rel.text.net_start_again
                0x04077600       0x78 arch/arm/cpu/armv7/start.o
 .rel.text.net_loop
                0x04077678      0x1b8 arch/arm/cpu/armv7/start.o
 .rel.text.net_get_udp_handler
                0x00000000        0x0 arch/arm/cpu/armv7/start.o
 .rel.text.net_set_udp_handler
                0x04077830       0x10 arch/arm/cpu/armv7/start.o
 .rel.text.net_get_arp_handler
                0x04077840        0x8 arch/arm/cpu/armv7/start.o
 .rel.text.net_set_arp_handler
                0x00000000        0x0 arch/arm/cpu/armv7/start.o
 .rel.text.net_set_icmp_handler
                0x04077848        0x8 arch/arm/cpu/armv7/start.o
 .rel.text.net_set_timeout_handler
                0x04077850       0x18 arch/arm/cpu/armv7/start.o
 .rel.text.net_process_received_packet
                0x04077868       0x48 arch/arm/cpu/armv7/start.o
 .rel.text.net_eth_hdr_size
                0x040778b0        0x8 arch/arm/cpu/armv7/start.o
 .rel.text.net_set_ether
                0x040778b8       0x10 arch/arm/cpu/armv7/start.o
 .rel.text.net_update_ether
                0x040778c8        0x8 arch/arm/cpu/armv7/start.o
 .rel.text.net_set_ip_header
                0x040778d0        0x8 arch/arm/cpu/armv7/start.o
 .rel.text.net_set_udp_header
                0x040778d8        0x8 arch/arm/cpu/armv7/start.o
 .rel.text.net_send_udp_packet
                0x040778e0       0x40 arch/arm/cpu/armv7/start.o
 .rel.text.on_bootfile
                0x04077920        0x8 arch/arm/cpu/armv7/start.o
 .rel.text.ip_to_string
                0x04077928        0x8 arch/arm/cpu/armv7/start.o
 .rel.text.vlan_to_string
                0x00000000        0x0 arch/arm/cpu/armv7/start.o
 .rel.text.on_nvlan
                0x04077930        0x8 arch/arm/cpu/armv7/start.o
 .rel.text.on_vlan
                0x04077938        0x8 arch/arm/cpu/armv7/start.o
 .rel.text.rpc_lookup_reply
                0x04077940       0x18 arch/arm/cpu/armv7/start.o
 .rel.text.nfs_mount_reply
                0x04077958       0x18 arch/arm/cpu/armv7/start.o
 .rel.text.nfs_umountall_reply
                0x04077970       0x18 arch/arm/cpu/armv7/start.o
 .rel.text.nfs_lookup_reply
                0x04077988       0x30 arch/arm/cpu/armv7/start.o
 .rel.text.nfs_readlink_reply
                0x040779b8       0x20 arch/arm/cpu/armv7/start.o
 .rel.text.rpc_req
                0x040779d8       0x40 arch/arm/cpu/armv7/start.o
 .rel.text.nfs_umountall_req
                0x04077a18       0x10 arch/arm/cpu/armv7/start.o
 .rel.text.nfs_read_reply.isra.2
                0x04077a28       0x30 arch/arm/cpu/armv7/start.o
 .rel.text.nfs_readlink_req
                0x04077a58       0x18 arch/arm/cpu/armv7/start.o
 .rel.text.nfs_read_req
                0x04077a70       0x18 arch/arm/cpu/armv7/start.o
 .rel.text.nfs_lookup_req
                0x04077a88       0x10 arch/arm/cpu/armv7/start.o
 .rel.text.nfs_send
                0x04077a98       0x68 arch/arm/cpu/armv7/start.o
 .rel.text.nfs_handler
                0x04077b00       0xa8 arch/arm/cpu/armv7/start.o
 .rel.text.nfs_timeout_handler
                0x04077ba8       0x20 arch/arm/cpu/armv7/start.o
 .rel.text.nfs_start
                0x04077bc8       0x88 arch/arm/cpu/armv7/start.o
 .rel.text.ping_timeout_handler
                0x04077c50        0x8 arch/arm/cpu/armv7/start.o
 .rel.text.ping_start
                0x04077c58       0x58 arch/arm/cpu/armv7/start.o
 .rel.text.ping_receive
                0x04077cb0       0x18 arch/arm/cpu/armv7/start.o
 .rel.text.tftp_complete
                0x04077cc8       0x30 arch/arm/cpu/armv7/start.o
 .rel.text.tftp_send
                0x04077cf8       0xe8 arch/arm/cpu/armv7/start.o
 .rel.text.update_block_number
                0x04077de0       0x38 arch/arm/cpu/armv7/start.o
 .rel.text.tftp_handler
                0x04077e18       0xd8 arch/arm/cpu/armv7/start.o
 .rel.text.tftp_timeout_handler
                0x04077ef0       0x40 arch/arm/cpu/armv7/start.o
 .rel.text.icmp_handler
                0x04077f30       0x10 arch/arm/cpu/armv7/start.o
 .rel.text.tftp_start
                0x04077f40      0x1b0 arch/arm/cpu/armv7/start.o
 .rel.u_boot_list_2_uclass_2_eth
                0x040780f0       0x28 arch/arm/cpu/armv7/start.o
 .rel.u_boot_list_2_env_clbk_2_ethaddr
                0x04078118       0x10 arch/arm/cpu/armv7/start.o
 .rel.u_boot_list_2_env_clbk_2_vlan
                0x04078128       0x10 arch/arm/cpu/armv7/start.o
 .rel.u_boot_list_2_env_clbk_2_serverip
                0x04078138       0x10 arch/arm/cpu/armv7/start.o
 .rel.u_boot_list_2_env_clbk_2_bootfile
                0x04078148       0x10 arch/arm/cpu/armv7/start.o
 .rel.u_boot_list_2_env_clbk_2_netmask
                0x04078158       0x10 arch/arm/cpu/armv7/start.o
 .rel.u_boot_list_2_env_clbk_2_nvlan
                0x04078168       0x10 arch/arm/cpu/armv7/start.o
 .rel.u_boot_list_2_env_clbk_2_gatewayip
                0x04078178       0x10 arch/arm/cpu/armv7/start.o
 .rel.u_boot_list_2_env_clbk_2_ipaddr
                0x04078188       0x10 arch/arm/cpu/armv7/start.o
 .rel.text.do_dm
                0x04078198        0x8 arch/arm/cpu/armv7/start.o
 .rel.u_boot_list_2_cmd_2_dm
                0x040781a0       0x20 arch/arm/cpu/armv7/start.o
 .rel.data.test_commands
                0x040781c0       0x60 arch/arm/cpu/armv7/start.o
 .rel.text.raise
                0x00000000        0x0 arch/arm/cpu/armv7/start.o

.rel_dyn_end    0x04078220        0x0
 *(.__rel_dyn_end)
 .__rel_dyn_end
                0x04078220        0x0 arch/arm/lib/built-in.o

.end            0x04078220        0x0
 *(.__end)
 .__end         0x04078220        0x0 arch/arm/lib/built-in.o
                0x04078220                _image_binary_end = .

.bss_start      0x0406cbe0        0x0
 *(.__bss_start)
 .__bss_start   0x0406cbe0        0x0 arch/arm/lib/built-in.o
                0x0406cbe0                __bss_start
                0x0406cbe0                __bss_base = .

.bss            0x0406cbe0    0x40b80
 *(.bss*)
 .bss.clks      0x0406cbe0      0x540 arch/arm/mach-zynq/built-in.o
 .bss.fpga      0x0406d120       0x1c board/xilinx/zynq/built-in.o
 .bss.data.8022
                0x0406d13c      0x400 cmd/built-in.o
 .bss.working_fdt
                0x0406d53c        0x4 cmd/built-in.o
                0x0406d53c                working_fdt
 .bss.i2c_mm_last_chip
                0x0406d540        0x4 cmd/built-in.o
 .bss.i2c_mm_last_alen
                0x0406d544        0x4 cmd/built-in.o
 .bss.i2c_mm_last_addr
                0x0406d548        0x4 cmd/built-in.o
 .bss.i2c_dp_last_chip
                0x0406d54c        0x4 cmd/built-in.o
 .bss.i2c_dp_last_addr
                0x0406d550        0x4 cmd/built-in.o
 .bss.i2c_dp_last_alen
                0x0406d554        0x4 cmd/built-in.o
 .bss.send_parms
                0x0406d558       0x14 cmd/built-in.o
 .bss.os_data_init
                0x0406d56c        0x4 cmd/built-in.o
 .bss.os_data_addr_saved
                0x0406d570        0x4 cmd/built-in.o
 .bss.his_pad_char
                0x0406d574        0x1 cmd/built-in.o
 .bss.a_b       0x0406d575       0x18 cmd/built-in.o
 *fill*         0x0406d58d        0x3 
 .bss.os_data_char
                0x0406d590        0x4 cmd/built-in.o
 .bss.os_data_state
                0x0406d594        0x4 cmd/built-in.o
 .bss.k_data_escape
                0x0406d598        0x4 cmd/built-in.o
 .bss.os_data_state_saved
                0x0406d59c        0x4 cmd/built-in.o
 .bss.os_data_addr
                0x0406d5a0        0x4 cmd/built-in.o
 .bss.send_ptr  0x0406d5a4        0x4 cmd/built-in.o
 .bss.bin_start_address
                0x0406d5a8        0x4 cmd/built-in.o
 .bss.his_quote
                0x0406d5ac        0x1 cmd/built-in.o
 *fill*         0x0406d5ad        0x3 
 .bss.his_pad_count
                0x0406d5b0        0x4 cmd/built-in.o
 .bss.his_eol   0x0406d5b4        0x1 cmd/built-in.o
 *fill*         0x0406d5b5        0x3 
 .bss.k_data_escape_saved
                0x0406d5b8        0x4 cmd/built-in.o
 .bss.dp_last_addr
                0x0406d5bc        0x4 cmd/built-in.o
 .bss.base_address
                0x0406d5c0        0x4 cmd/built-in.o
 .bss.mm_last_size
                0x0406d5c4        0x4 cmd/built-in.o
 .bss.mm_last_addr
                0x0406d5c8        0x4 cmd/built-in.o
 .bss.dp_last_size
                0x0406d5cc        0x4 cmd/built-in.o
 .bss.last_data
                0x0406d5d0        0x8 cmd/built-in.o
 .bss.last_reg_hi
                0x0406d5d8        0x8 cmd/built-in.o
 .bss.last_mask
                0x0406d5e0        0x4 cmd/built-in.o
 .bss.last_addr_lo
                0x0406d5e4        0x8 cmd/built-in.o
 .bss.last_op   0x0406d5ec        0x4 cmd/built-in.o
 .bss.last_addr_hi
                0x0406d5f0        0x8 cmd/built-in.o
 .bss.last_reg_lo
                0x0406d5f8        0x8 cmd/built-in.o
 .bss.last_devad_hi
                0x0406d600        0x4 cmd/built-in.o
 .bss.last_devad_lo
                0x0406d604        0x4 cmd/built-in.o
 .bss.flash     0x0406d608        0x4 cmd/built-in.o
 .bss.__compound_literal.1
                0x0406d60c        0x4 cmd/built-in.o
 .bss.flag_repeat
                0x0406d610        0x4 common/built-in.o
 .bss.buf.8369  0x0406d614       0x28 common/built-in.o
 .bss.ifs       0x0406d63c        0x4 common/built-in.o
 .bss.last_return_code
                0x0406d640        0x4 common/built-in.o
 .bss.map       0x0406d644      0x100 common/built-in.o
 .bss.do_repeat
                0x0406d744        0x4 common/built-in.o
 .bss.the_command.8169
                0x0406d748      0x801 common/built-in.o
 *fill*         0x0406df49        0x3 
 .bss.top_vars  0x0406df4c        0x4 common/built-in.o
 .bss.stored_bootdelay
                0x0406df50        0x4 common/built-in.o
 .bss.monitor_flash_len
                0x0406df54        0x4 common/built-in.o
                0x0406df54                monitor_flash_len
 .bss.images    0x0406df58      0x164 common/built-in.o
                0x0406df58                images
 .bss.callback_list
                0x0406e0bc        0x4 common/built-in.o
 .bss.flags_list
                0x0406e0c0        0x4 common/built-in.o
 .bss.env_flash
                0x0406e0c4        0x4 common/built-in.o
 .bss.current_mii
                0x0406e0c8        0x4 common/built-in.o
 .bss.mii_devs  0x0406e0cc        0x8 common/built-in.o
 .bss.usb_started
                0x0406e0d4        0x1 common/built-in.o
                0x0406e0d4                usb_started
 *fill*         0x0406e0d5        0x3 
 .bss.running.10025
                0x0406e0d8        0x4 common/built-in.o
 .bss.usb_hub_index
                0x0406e0dc        0x4 common/built-in.o
 .bss.hub_dev   0x0406e0e0      0x380 common/built-in.o
 .bss.usb_max_devs
                0x0406e460        0x4 common/built-in.o
 .bss.CBWTag    0x0406e464        0x4 common/built-in.o
 *fill*         0x0406e468       0x18 
 .bss.usb_ccb   0x0406e480       0xc0 common/built-in.o
 .bss.ctrlc_was_pressed
                0x0406e540        0x4 common/built-in.o
 .bss.ctrlc_disabled
                0x0406e544        0x4 common/built-in.o
 .bss.max_total_mem
                0x0406e548        0x4 common/built-in.o
 .bss.mem_malloc_brk
                0x0406e54c        0x4 common/built-in.o
                0x0406e54c                mem_malloc_brk
 .bss.max_sbrked_mem
                0x0406e550        0x4 common/built-in.o
 .bss.current_mallinfo
                0x0406e554       0x28 common/built-in.o
 .bss.mem_malloc_end
                0x0406e57c        0x4 common/built-in.o
                0x0406e57c                mem_malloc_end
 .bss.top_pad   0x0406e580        0x4 common/built-in.o
 .bss.mem_malloc_start
                0x0406e584        0x4 common/built-in.o
                0x0406e584                mem_malloc_start
 .bss.save_addr
                0x0406e588        0x4 common/built-in.o
                0x0406e588                save_addr
 .bss.load_addr
                0x0406e58c        0x4 common/built-in.o
                0x0406e58c                load_addr
 .bss.save_size
                0x0406e590        0x4 common/built-in.o
                0x0406e590                save_size
 .bss.devs      0x0406e594       0x4c common/built-in.o
 .bss.stdio_devices
                0x0406e5e0        0xc common/built-in.o
                0x0406e5e0                stdio_devices
 .bss.hist_list
                0x0406e5ec       0x50 common/built-in.o
 .bss.hist_lines
                0x0406e63c     0xa014 common/built-in.o
 .bss.hist_max  0x04078650        0x4 common/built-in.o
 .bss.hist_add_idx
                0x04078654        0x4 common/built-in.o
 .bss.initted.8037
                0x04078658        0x4 common/built-in.o
 .bss.hist_num  0x0407865c        0x4 common/built-in.o
 .bss.console_buffer
                0x04078660      0x801 common/built-in.o
                0x04078660                console_buffer
 .bss.tmp_buf.7928
                0x04078e61      0x200 common/built-in.o
 .bss.tmp_buf   0x04079061      0x800 common/built-in.o
 *fill*         0x04079861        0x3 
 .bss.xyz       0x04079864      0x434 common/built-in.o
 .bss.desc_table
                0x04079c98       0x28 drivers/built-in.o
 .bss.alt_num_cnt
                0x04079cc0        0x4 drivers/built-in.o
 .bss.dfu_buf   0x04079cc4        0x4 drivers/built-in.o
 .bss.dfu_buf_size
                0x04079cc8        0x4 drivers/built-in.o
 .bss.dfu_hash_algo
                0x04079ccc        0x4 drivers/built-in.o
 .bss.dfu_alt_num
                0x04079cd0        0x4 drivers/built-in.o
 .bss.dfu_file_buf_len
                0x04079cd4        0x4 drivers/built-in.o
 .bss.dfu_file_buf
                0x04079cd8        0x4 drivers/built-in.o
 .bss.dfu_file_buf_filled
                0x04079cdc        0x4 drivers/built-in.o
 .bss.initialized.9815
                0x04079ce0        0x4 drivers/mmc/built-in.o
 .bss.aligned_buffer
                0x04079ce4        0x4 drivers/mmc/built-in.o
                0x04079ce4                aligned_buffer
 .bss.current_u_page.11302
                0x04079ce8        0x1 drivers/spi/built-in.o
 *fill*         0x04079ce9        0x3 
 .bss.epnum     0x04079cec        0x4 drivers/usb/gadget/built-in.o
 .bss.g_dnl_detach_request
                0x04079cf0        0x1 drivers/usb/gadget/built-in.o
 .bss.g_dnl_serial
                0x04079cf1       0x20 drivers/usb/gadget/built-in.o
 *fill*         0x04079d11        0x3 
 .bss.composite
                0x04079d14        0x4 drivers/usb/gadget/built-in.o
 .bss.cnt.10554
                0x04079d18        0x4 drivers/usb/gadget/built-in.o
 *fill*         0x04079d1c        0x4 
 .bss.left.10550
                0x04079d20        0x8 drivers/usb/gadget/built-in.o
 .bss.thor_func
                0x04079d28        0x4 drivers/usb/gadget/built-in.o
 *fill*         0x04079d2c       0x14 
 .bss.__f_name  0x04079d40       0x40 drivers/usb/gadget/built-in.o
 .bss.__thor_tx_data_buf
                0x04079d80       0x80 drivers/usb/gadget/built-in.o
 .bss.ret_head.10551
                0x04079e00        0x8 drivers/usb/gadget/built-in.o
 .bss.alt_setting_num
                0x04079e08        0x4 drivers/usb/gadget/built-in.o
 *fill*         0x04079e0c       0x34 
 .bss.__thor_rx_data_buf
                0x04079e40      0x100 drivers/usb/gadget/built-in.o
 .bss.thor_file_size
                0x04079f40        0x8 drivers/usb/gadget/built-in.o
 .bss.dfu_defer_flush
                0x04079f48        0x4 drivers/usb/gadget/built-in.o
                0x04079f48                dfu_defer_flush
 .bss.asynch_allowed
                0x04079f4c        0x1 drivers/usb/host/built-in.o
 *fill*         0x04079f4d        0x3 
 .bss.fs_partition
                0x04079f50       0x50 fs/built-in.o
 .bss.fs_type   0x04079fa0        0x4 fs/built-in.o
 .bss.fs_dev_desc
                0x04079fa4        0x4 fs/built-in.o
 .bss.ext_fs    0x04079fa8       0x48 fs/built-in.o
                0x04079fa8                ext_fs
 .bss.ext4fs_indir3_block
                0x04079ff0        0x4 fs/built-in.o
                0x04079ff0                ext4fs_indir3_block
 .bss.ext4fs_root
                0x04079ff4        0x4 fs/built-in.o
                0x04079ff4                ext4fs_root
 .bss.ext4fs_indir3_size
                0x04079ff8        0x4 fs/built-in.o
                0x04079ff8                ext4fs_indir3_size
 .bss.ext4fs_indir1_block
                0x04079ffc        0x4 fs/built-in.o
                0x04079ffc                ext4fs_indir1_block
 .bss.ext4fs_indir2_size
                0x0407a000        0x4 fs/built-in.o
                0x0407a000                ext4fs_indir2_size
 .bss.ext4fs_indir2_block
                0x0407a004        0x4 fs/built-in.o
                0x0407a004                ext4fs_indir2_block
 .bss.ext4fs_indir1_size
                0x0407a008        0x4 fs/built-in.o
                0x0407a008                ext4fs_indir1_size
 .bss.symlinknest
                0x0407a00c        0x4 fs/built-in.o
 .bss.ext4fs_file
                0x0407a010        0x4 fs/built-in.o
                0x0407a010                ext4fs_file
 .bss.g_parent_inode
                0x0407a014        0x4 fs/built-in.o
                0x0407a014                g_parent_inode
 .bss.part_info
                0x0407a018        0x4 fs/built-in.o
 .bss.part_offset
                0x0407a01c        0x4 fs/built-in.o
                0x0407a01c                part_offset
 .bss.ext4fs_blk_desc
                0x0407a020        0x4 fs/built-in.o
 .bss.journal_ptr
                0x0407a024      0x190 fs/built-in.o
                0x0407a024                journal_ptr
 .bss.revk_blk_list
                0x0407a1b4        0x4 fs/built-in.o
 .bss.gindex    0x0407a1b8        0x4 fs/built-in.o
                0x0407a1b8                gindex
 .bss.gd_index  0x0407a1bc        0x4 fs/built-in.o
                0x0407a1bc                gd_index
 .bss.dirty_block_ptr
                0x0407a1c0      0x190 fs/built-in.o
                0x0407a1c0                dirty_block_ptr
 .bss.prev_node
                0x0407a350        0x4 fs/built-in.o
 .bss.jrnl_blk_idx
                0x0407a354        0x4 fs/built-in.o
                0x0407a354                jrnl_blk_idx
 *fill*         0x0407a358       0x28 
 .bss.get_contents_vfatname_block
                0x0407a380    0x10000 fs/built-in.o
                0x0407a380                get_contents_vfatname_block
 .bss.do_fat_read_at_block
                0x0408a380    0x10000 fs/built-in.o
                0x0408a380                do_fat_read_at_block
 .bss.get_dentfromdir_block
                0x0409a380    0x10000 fs/built-in.o
                0x0409a380                get_dentfromdir_block
 .bss.empty_dentptr
                0x040aa380        0x4 fs/built-in.o
 .bss.cur_part_info
                0x040aa384       0x50 fs/built-in.o
 .bss.total_sector
                0x040aa3d4        0x4 fs/built-in.o
 .bss.dir_curclust
                0x040aa3d8        0x4 fs/built-in.o
 .bss.num_of_fats
                0x040aa3dc        0x1 fs/built-in.o
 *fill*         0x040aa3dd        0x3 
 .bss.cur_dev   0x040aa3e0        0x4 fs/built-in.o
 *fill*         0x040aa3e4        0x4 
 .bss.mono.9065
                0x040aa3e8        0x8 lib/built-in.o
 .bss.app_gd    0x040aa3f0        0x4 lib/built-in.o
 .bss.efi_gd    0x040aa3f4        0x4 lib/built-in.o
 .bss.console_size_queried
                0x040aa3f8        0x1 lib/built-in.o
 .bss.new_rx_packet
                0x040aa3f9        0x1 lib/built-in.o
 *fill*         0x040aa3fa        0x2 
 .bss.dhcp_ack  0x040aa3fc        0x4 lib/built-in.o
 .bss.new_tx_packet
                0x040aa400        0x4 lib/built-in.o
 .bss.errno     0x040aa404        0x4 lib/built-in.o
                0x040aa404                errno
 .bss.___strtok
                0x040aa408        0x4 lib/built-in.o
                0x040aa408                ___strtok
 .bss.local.8109
                0x040aa40c       0x16 lib/built-in.o
 .bss.arp_tx_packet_buf
                0x040aa422      0x640 net/built-in.o
 *fill*         0x040aaa62        0x2 
 .bss.arp_wait_packet_ethaddr
                0x040aaa64        0x4 net/built-in.o
                0x040aaa64                arp_wait_packet_ethaddr
 .bss.arp_tx_packet
                0x040aaa68        0x4 net/built-in.o
 .bss.arp_wait_tx_packet_size
                0x040aaa6c        0x4 net/built-in.o
                0x040aaa6c                arp_wait_tx_packet_size
 .bss.arp_wait_try
                0x040aaa70        0x4 net/built-in.o
                0x040aaa70                arp_wait_try
 .bss.net_arp_wait_reply_ip
                0x040aaa74        0x4 net/built-in.o
 .bss.net_arp_wait_packet_ip
                0x040aaa78        0x4 net/built-in.o
                0x040aaa78                net_arp_wait_packet_ip
 .bss.arp_wait_timer_start
                0x040aaa7c        0x4 net/built-in.o
                0x040aaa7c                arp_wait_timer_start
 .bss.dhcp_state
                0x040aaa80        0x4 net/built-in.o
 .bss.net_hostname
                0x040aaa84       0x20 net/built-in.o
                0x040aaa84                net_hostname
 .bss.bootp_timeout
                0x040aaaa4        0x4 net/built-in.o
                0x040aaaa4                bootp_timeout
 .bss.dhcp_server_ip
                0x040aaaa8        0x4 net/built-in.o
 .bss.dhcp_option_overload
                0x040aaaac        0x1 net/built-in.o
 *fill*         0x040aaaad        0x3 
 .bss.time_taken_max
                0x040aaab0        0x4 net/built-in.o
 .bss.net_root_path
                0x040aaab4       0x40 net/built-in.o
                0x040aaab4                net_root_path
 .bss.bootp_ids
                0x040aaaf4       0x10 net/built-in.o
                0x040aaaf4                bootp_ids
 .bss.bootp_num_ids
                0x040aab04        0x4 net/built-in.o
                0x040aab04                bootp_num_ids
 .bss.bootp_try
                0x040aab08        0x4 net/built-in.o
                0x040aab08                bootp_try
 .bss.bootp_start
                0x040aab0c        0x4 net/built-in.o
                0x040aab0c                bootp_start
 .bss.dhcp_leasetime
                0x040aab10        0x4 net/built-in.o
 .bss.net_nis_domain
                0x040aab14       0x20 net/built-in.o
                0x040aab14                net_nis_domain
 .bss.eth_errno
                0x040aab34        0x4 net/built-in.o
 .bss.env_changed_id.9557
                0x040aab38        0x4 net/built-in.o
 .bss.act.9556  0x040aab3c        0x4 net/built-in.o
 .bss.first_failed.9551
                0x040aab40        0x4 net/built-in.o
 .bss.net_ethaddr
                0x040aab44        0x6 net/built-in.o
                0x040aab44                net_ethaddr
 *fill*         0x040aab4a        0x2 
 .bss.net_dns_server
                0x040aab4c        0x4 net/built-in.o
                0x040aab4c                net_dns_server
 .bss.net_state
                0x040aab50        0x4 net/built-in.o
                0x040aab50                net_state
 .bss.net_server_ip
                0x040aab54        0x4 net/built-in.o
                0x040aab54                net_server_ip
 .bss.net_rx_packet
                0x040aab58        0x4 net/built-in.o
                0x040aab58                net_rx_packet
 .bss.net_boot_file_expected_size_in_blocks
                0x040aab5c        0x4 net/built-in.o
                0x040aab5c                net_boot_file_expected_size_in_blocks
 .bss.net_rx_packets
                0x040aab60       0x10 net/built-in.o
                0x040aab60                net_rx_packets
 .bss.time_start
                0x040aab70        0x8 net/built-in.o
 .bss.net_gateway
                0x040aab78        0x4 net/built-in.o
                0x040aab78                net_gateway
 .bss.net_boot_file_size
                0x040aab7c        0x4 net/built-in.o
                0x040aab7c                net_boot_file_size
 .bss.net_boot_file_name
                0x040aab80      0x400 net/built-in.o
                0x040aab80                net_boot_file_name
 .bss.udp_packet_handler
                0x040aaf80        0x4 net/built-in.o
 .bss.net_dev_exists
                0x040aaf84        0x4 net/built-in.o
 .bss.net_try_count
                0x040aaf88        0x4 net/built-in.o
 .bss.net_server_ethaddr
                0x040aaf8c        0x6 net/built-in.o
                0x040aaf8c                net_server_ethaddr
 .bss.net_null_ethaddr
                0x040aaf92        0x6 net/built-in.o
                0x040aaf92                net_null_ethaddr
 .bss.net_ip_id
                0x040aaf98        0x4 net/built-in.o
 .bss.net_restart_wrap
                0x040aaf9c        0x4 net/built-in.o
                0x040aaf9c                net_restart_wrap
 .bss.net_restarted
                0x040aafa0        0x4 net/built-in.o
 .bss.time_delta
                0x040aafa4        0x4 net/built-in.o
 .bss.arp_packet_handler
                0x040aafa8        0x4 net/built-in.o
 .bss.net_netmask
                0x040aafac        0x4 net/built-in.o
                0x040aafac                net_netmask
 .bss.packet_icmp_handler
                0x040aafb0        0x4 net/built-in.o
 .bss.net_ip    0x040aafb4        0x4 net/built-in.o
                0x040aafb4                net_ip
 .bss.net_rx_packet_len
                0x040aafb8        0x4 net/built-in.o
                0x040aafb8                net_rx_packet_len
 .bss.net_tx_packet
                0x040aafbc        0x4 net/built-in.o
                0x040aafbc                net_tx_packet
 .bss.time_handler
                0x040aafc0        0x4 net/built-in.o
 .bss.push_packet
                0x040aafc4        0x4 net/built-in.o
                0x040aafc4                push_packet
 .bss.net_pkt_buf
                0x040aafc8     0x1e40 net/built-in.o
 .bss.nfs_server_mount_port
                0x040ace08        0x4 net/built-in.o
 .bss.nfs_server_ip
                0x040ace0c        0x4 net/built-in.o
 .bss.nfs_filename
                0x040ace10        0x4 net/built-in.o
 .bss.nfs_state
                0x040ace14        0x4 net/built-in.o
 .bss.filefh3_length
                0x040ace18        0x4 net/built-in.o
 .bss.dirfh     0x040ace1c       0x20 net/built-in.o
 .bss.rpc_id    0x040ace3c        0x4 net/built-in.o
 .bss.fs_mounted
                0x040ace40        0x4 net/built-in.o
 .bss.nfs_len   0x040ace44        0x4 net/built-in.o
 .bss.nfs_server_port
                0x040ace48        0x4 net/built-in.o
 .bss.nfs_download_state
                0x040ace4c        0x4 net/built-in.o
 .bss.nfs_path  0x040ace50        0x4 net/built-in.o
 .bss.nfs_path_buff
                0x040ace54      0x800 net/built-in.o
 .bss.nfs_timeout_count
                0x040ad654        0x4 net/built-in.o
 .bss.filefh    0x040ad658       0x40 net/built-in.o
 .bss.nfs_our_port
                0x040ad698        0x4 net/built-in.o
 .bss.net_ping_ip
                0x040ad69c        0x4 net/built-in.o
                0x040ad69c                net_ping_ip
 .bss.ping_seq_number
                0x040ad6a0        0x2 net/built-in.o
 *fill*         0x040ad6a2        0x2 
 .bss.tftp_put_final_block_sent
                0x040ad6a4        0x4 net/built-in.o
 .bss.tftp_prev_block
                0x040ad6a8        0x4 net/built-in.o
 .bss.timeout_count
                0x040ad6ac        0x4 net/built-in.o
 .bss.default_filename
                0x040ad6b0        0xd net/built-in.o
 *fill*         0x040ad6bd        0x3 
 .bss.tftp_put_active
                0x040ad6c0        0x4 net/built-in.o
 .bss.tftp_remote_port
                0x040ad6c4        0x4 net/built-in.o
 .bss.tftp_cur_block
                0x040ad6c8        0x4 net/built-in.o
 .bss.tftp_remote_ip
                0x040ad6cc        0x4 net/built-in.o
 .bss.tftp_state
                0x040ad6d0        0x4 net/built-in.o
 .bss.tftp_our_port
                0x040ad6d4        0x4 net/built-in.o
 .bss.tftp_block_wrap
                0x040ad6d8        0x4 net/built-in.o
 .bss.tftp_filename
                0x040ad6dc       0x80 net/built-in.o
 .bss.tftp_block_wrap_offset
                0x040ad75c        0x4 net/built-in.o
                0x040ad760                . = ALIGN (0x4)
                0x040ad760                __bss_limit = .

.bss_end        0x040ad760        0x0
 *(.__bss_end)
 .__bss_end     0x040ad760        0x0 arch/arm/lib/built-in.o
                0x040ad760                __bss_end

/DISCARD/
 *(.dynsym)
 *(.dynbss*)
 *(.dynstr*)
 *(.dynamic*)
 *(.plt*)
 *(.interp*)
 *(.gnu*)
 *(.ARM.exidx*)
 *(.gnu.linkonce.armexidx.*)
LOAD arch/arm/cpu/armv7/start.o
START GROUP
LOAD arch/arm/cpu/built-in.o
LOAD arch/arm/cpu/armv7/built-in.o
LOAD arch/arm/lib/built-in.o
LOAD arch/arm/mach-zynq/built-in.o
LOAD board/xilinx/zynq/built-in.o
LOAD cmd/built-in.o
LOAD common/built-in.o
LOAD disk/built-in.o
LOAD drivers/built-in.o
LOAD drivers/dma/built-in.o
LOAD drivers/gpio/built-in.o
LOAD drivers/i2c/built-in.o
LOAD drivers/mmc/built-in.o
LOAD drivers/mtd/built-in.o
LOAD drivers/mtd/onenand/built-in.o
LOAD drivers/mtd/spi/built-in.o
LOAD drivers/net/built-in.o
LOAD drivers/net/phy/built-in.o
LOAD drivers/pci/built-in.o
LOAD drivers/power/built-in.o
LOAD drivers/power/battery/built-in.o
LOAD drivers/power/domain/built-in.o
LOAD drivers/power/fuel_gauge/built-in.o
LOAD drivers/power/mfd/built-in.o
LOAD drivers/power/pmic/built-in.o
LOAD drivers/power/regulator/built-in.o
LOAD drivers/serial/built-in.o
LOAD drivers/spi/built-in.o
LOAD drivers/usb/common/built-in.o
LOAD drivers/usb/dwc3/built-in.o
LOAD drivers/usb/emul/built-in.o
LOAD drivers/usb/eth/built-in.o
LOAD drivers/usb/gadget/built-in.o
LOAD drivers/usb/gadget/udc/built-in.o
LOAD drivers/usb/host/built-in.o
LOAD drivers/usb/musb-new/built-in.o
LOAD drivers/usb/musb/built-in.o
LOAD drivers/usb/phy/built-in.o
LOAD drivers/usb/ulpi/built-in.o
LOAD dts/built-in.o
LOAD fs/built-in.o
LOAD lib/built-in.o
LOAD net/built-in.o
LOAD test/built-in.o
LOAD test/dm/built-in.o
END GROUP
LOAD arch/arm/lib/eabi_compat.o
LOAD arch/arm/lib/lib.a
OUTPUT(u-boot elf32-littlearm)

.ARM.attributes
                0x00000000       0x2f
 .ARM.attributes
                0x00000000       0x23 arch/arm/cpu/armv7/start.o
 .ARM.attributes
                0x00000023       0x31 arch/arm/cpu/armv7/built-in.o
 .ARM.attributes
                0x00000054       0x2f arch/arm/lib/built-in.o
 .ARM.attributes
                0x00000083       0x2f arch/arm/mach-zynq/built-in.o
 .ARM.attributes
                0x000000b2       0x2d board/xilinx/zynq/built-in.o
 .ARM.attributes
                0x000000df       0x2d cmd/built-in.o
 .ARM.attributes
                0x0000010c       0x2d common/built-in.o
 .ARM.attributes
                0x00000139       0x2d disk/built-in.o
 .ARM.attributes
                0x00000166       0x2d drivers/built-in.o
 .ARM.attributes
                0x00000193       0x2d drivers/gpio/built-in.o
 .ARM.attributes
                0x000001c0       0x2d drivers/i2c/built-in.o
 .ARM.attributes
                0x000001ed       0x2d drivers/mmc/built-in.o
 .ARM.attributes
                0x0000021a       0x2d drivers/mtd/built-in.o
 .ARM.attributes
                0x00000247       0x2d drivers/mtd/spi/built-in.o
 .ARM.attributes
                0x00000274       0x2d drivers/net/built-in.o
 .ARM.attributes
                0x000002a1       0x2d drivers/net/phy/built-in.o
 .ARM.attributes
                0x000002ce       0x2d drivers/serial/built-in.o
 .ARM.attributes
                0x000002fb       0x2d drivers/spi/built-in.o
 .ARM.attributes
                0x00000328       0x2d drivers/usb/gadget/built-in.o
 .ARM.attributes
                0x00000355       0x2d drivers/usb/host/built-in.o
 .ARM.attributes
                0x00000382       0x2d drivers/usb/ulpi/built-in.o
 .ARM.attributes
                0x000003af       0x23 dts/built-in.o
 .ARM.attributes
                0x000003d2       0x2d fs/built-in.o
 .ARM.attributes
                0x000003ff       0x2d lib/built-in.o
 .ARM.attributes
                0x0000042c       0x2d net/built-in.o
 .ARM.attributes
                0x00000459       0x2d test/dm/built-in.o
 .ARM.attributes
                0x00000486       0x23 arch/arm/lib/lib.a(ashldi3.o)
 .ARM.attributes
                0x000004a9       0x23 arch/arm/lib/lib.a(lib1funcs.o)
 .ARM.attributes
                0x000004cc       0x23 arch/arm/lib/lib.a(lshrdi3.o)
 .ARM.attributes
                0x000004ef       0x2d arch/arm/lib/lib.a(div0.o)

.comment        0x00000000       0x30
 .comment       0x00000000       0x30 arch/arm/cpu/armv7/built-in.o
                                 0xc4 (size before relaxing)
 .comment       0x00000000      0x1ea arch/arm/lib/built-in.o
 .comment       0x00000000       0xf5 arch/arm/mach-zynq/built-in.o
 .comment       0x00000000       0x31 board/xilinx/zynq/built-in.o
 .comment       0x00000000      0x7d9 cmd/built-in.o
 .comment       0x00000000      0x777 common/built-in.o
 .comment       0x00000000       0x62 disk/built-in.o
 .comment       0x00000000      0x436 drivers/built-in.o
 .comment       0x00000000       0x62 drivers/gpio/built-in.o
 .comment       0x00000000       0x62 drivers/i2c/built-in.o
 .comment       0x00000000       0xf5 drivers/mmc/built-in.o
 .comment       0x00000000       0x62 drivers/mtd/built-in.o
 .comment       0x00000000       0xf5 drivers/mtd/spi/built-in.o
 .comment       0x00000000       0x31 drivers/net/built-in.o
 .comment       0x00000000       0xc4 drivers/net/phy/built-in.o
 .comment       0x00000000       0x93 drivers/serial/built-in.o
 .comment       0x00000000       0x62 drivers/spi/built-in.o
 .comment       0x00000000      0x157 drivers/usb/gadget/built-in.o
 .comment       0x00000000       0x93 drivers/usb/host/built-in.o
 .comment       0x00000000       0x62 drivers/usb/ulpi/built-in.o
 .comment       0x00000000      0x1b9 fs/built-in.o
 .comment       0x00000000      0xae9 lib/built-in.o
 .comment       0x00000000      0x1b9 net/built-in.o
 .comment       0x00000000       0x31 test/dm/built-in.o
 .comment       0x00000000       0x31 arch/arm/lib/lib.a(div0.o)

.note.GNU-stack
                0x00000000        0x0
 .note.GNU-stack
                0x00000000        0x0 arch/arm/cpu/armv7/built-in.o
 .note.GNU-stack
                0x00000000        0x0 arch/arm/lib/built-in.o
 .note.GNU-stack
                0x00000000        0x0 arch/arm/mach-zynq/built-in.o
 .note.GNU-stack
                0x00000000        0x0 board/xilinx/zynq/built-in.o
 .note.GNU-stack
                0x00000000        0x0 cmd/built-in.o
 .note.GNU-stack
                0x00000000        0x0 common/built-in.o
 .note.GNU-stack
                0x00000000        0x0 disk/built-in.o
 .note.GNU-stack
                0x00000000        0x0 drivers/built-in.o
 .note.GNU-stack
                0x00000000        0x0 drivers/gpio/built-in.o
 .note.GNU-stack
                0x00000000        0x0 drivers/i2c/built-in.o
 .note.GNU-stack
                0x00000000        0x0 drivers/mmc/built-in.o
 .note.GNU-stack
                0x00000000        0x0 drivers/mtd/built-in.o
 .note.GNU-stack
                0x00000000        0x0 drivers/mtd/spi/built-in.o
 .note.GNU-stack
                0x00000000        0x0 drivers/net/built-in.o
 .note.GNU-stack
                0x00000000        0x0 drivers/net/phy/built-in.o
 .note.GNU-stack
                0x00000000        0x0 drivers/serial/built-in.o
 .note.GNU-stack
                0x00000000        0x0 drivers/spi/built-in.o
 .note.GNU-stack
                0x00000000        0x0 drivers/usb/gadget/built-in.o
 .note.GNU-stack
                0x00000000        0x0 drivers/usb/host/built-in.o
 .note.GNU-stack
                0x00000000        0x0 drivers/usb/ulpi/built-in.o
 .note.GNU-stack
                0x00000000        0x0 fs/built-in.o
 .note.GNU-stack
                0x00000000        0x0 lib/built-in.o
 .note.GNU-stack
                0x00000000        0x0 net/built-in.o
 .note.GNU-stack
                0x00000000        0x0 test/dm/built-in.o
 .note.GNU-stack
                0x00000000        0x0 arch/arm/lib/lib.a(div0.o)

.debug_line     0x00000000    0x27f08
 .debug_line    0x00000000       0x89 arch/arm/cpu/armv7/start.o
 .debug_line    0x00000089      0x423 arch/arm/cpu/armv7/built-in.o
 .debug_line    0x000004ac      0xe0c arch/arm/lib/built-in.o
 .debug_line    0x000012b8      0x941 arch/arm/mach-zynq/built-in.o
 .debug_line    0x00001bf9      0x1cc board/xilinx/zynq/built-in.o
 .debug_line    0x00001dc5     0x4db1 cmd/built-in.o
 .debug_line    0x00006b76     0x7f97 common/built-in.o
 .debug_line    0x0000eb0d      0x64d disk/built-in.o
 .debug_line    0x0000f15a     0x32b6 drivers/built-in.o
 .debug_line    0x00012410      0x9ab drivers/gpio/built-in.o
 .debug_line    0x00012dbb      0x3c5 drivers/i2c/built-in.o
 .debug_line    0x00013180     0x1675 drivers/mmc/built-in.o
 .debug_line    0x000147f5      0x681 drivers/mtd/built-in.o
 .debug_line    0x00014e76      0xc38 drivers/mtd/spi/built-in.o
 .debug_line    0x00015aae      0x48f drivers/net/built-in.o
 .debug_line    0x00015f3d      0xec5 drivers/net/phy/built-in.o
 .debug_line    0x00016e02      0x764 drivers/serial/built-in.o
 .debug_line    0x00017566      0x78d drivers/spi/built-in.o
 .debug_line    0x00017cf3     0x1ff4 drivers/usb/gadget/built-in.o
 .debug_line    0x00019ce7      0xe99 drivers/usb/host/built-in.o
 .debug_line    0x0001ab80      0x2d8 drivers/usb/ulpi/built-in.o
 .debug_line    0x0001ae58     0x2fab fs/built-in.o
 .debug_line    0x0001de03     0x7e8b lib/built-in.o
 .debug_line    0x00025c8e     0x1fe0 net/built-in.o
 .debug_line    0x00027c6e       0xbb test/dm/built-in.o
 .debug_line    0x00027d29       0x4c arch/arm/lib/lib.a(ashldi3.o)
 .debug_line    0x00027d75      0x103 arch/arm/lib/lib.a(lib1funcs.o)
 .debug_line    0x00027e78       0x4c arch/arm/lib/lib.a(lshrdi3.o)
 .debug_line    0x00027ec4       0x44 arch/arm/lib/lib.a(div0.o)

.debug_info     0x00000000    0xfc01d
 .debug_info    0x00000000       0x5f arch/arm/cpu/armv7/start.o
 .debug_info    0x0000005f      0xa86 arch/arm/cpu/armv7/built-in.o
 .debug_info    0x00000ae5     0x3e21 arch/arm/lib/built-in.o
 .debug_info    0x00004906     0x3de9 arch/arm/mach-zynq/built-in.o
 .debug_info    0x000086ef      0xa47 board/xilinx/zynq/built-in.o
 .debug_info    0x00009136    0x2440c cmd/built-in.o
 .debug_info    0x0002d542    0x33823 common/built-in.o
 .debug_info    0x00060d65     0x24b3 disk/built-in.o
 .debug_info    0x00063218    0x154e7 drivers/built-in.o
 .debug_info    0x000786ff     0x3fd2 drivers/gpio/built-in.o
 .debug_info    0x0007c6d1     0x164d drivers/i2c/built-in.o
 .debug_info    0x0007dd1e     0x9719 drivers/mmc/built-in.o
 .debug_info    0x00087437     0x1b8f drivers/mtd/built-in.o
 .debug_info    0x00088fc6     0x501d drivers/mtd/spi/built-in.o
 .debug_info    0x0008dfe3     0x2861 drivers/net/built-in.o
 .debug_info    0x00090844     0x6f2f drivers/net/phy/built-in.o
 .debug_info    0x00097773     0x31f2 drivers/serial/built-in.o
 .debug_info    0x0009a965     0x3b4e drivers/spi/built-in.o
 .debug_info    0x0009e4b3     0xeb18 drivers/usb/gadget/built-in.o
 .debug_info    0x000acfcb     0x7bd2 drivers/usb/host/built-in.o
 .debug_info    0x000b4b9d      0xfae drivers/usb/ulpi/built-in.o
 .debug_info    0x000b5b4b    0x1250a fs/built-in.o
 .debug_info    0x000c8055    0x27f0c lib/built-in.o
 .debug_info    0x000eff61     0xbb55 net/built-in.o
 .debug_info    0x000fbab6      0x405 test/dm/built-in.o
 .debug_info    0x000fbebb       0x5b arch/arm/lib/lib.a(ashldi3.o)
 .debug_info    0x000fbf16       0x59 arch/arm/lib/lib.a(lib1funcs.o)
 .debug_info    0x000fbf6f       0x5b arch/arm/lib/lib.a(lshrdi3.o)
 .debug_info    0x000fbfca       0x53 arch/arm/lib/lib.a(div0.o)

.debug_abbrev   0x00000000    0x295e3
 .debug_abbrev  0x00000000       0x14 arch/arm/cpu/armv7/start.o
 .debug_abbrev  0x00000014      0x47b arch/arm/cpu/armv7/built-in.o
 .debug_abbrev  0x0000048f     0x10a7 arch/arm/lib/built-in.o
 .debug_abbrev  0x00001536      0xc01 arch/arm/mach-zynq/built-in.o
 .debug_abbrev  0x00002137      0x22d board/xilinx/zynq/built-in.o
 .debug_abbrev  0x00002364     0x68f8 cmd/built-in.o
 .debug_abbrev  0x00008c5c     0x7d42 common/built-in.o
 .debug_abbrev  0x0001099e      0x7a9 disk/built-in.o
 .debug_abbrev  0x00011147     0x3a49 drivers/built-in.o
 .debug_abbrev  0x00014b90      0x857 drivers/gpio/built-in.o
 .debug_abbrev  0x000153e7      0x62b drivers/i2c/built-in.o
 .debug_abbrev  0x00015a12     0x139a drivers/mmc/built-in.o
 .debug_abbrev  0x00016dac      0x5a3 drivers/mtd/built-in.o
 .debug_abbrev  0x0001734f      0xbfb drivers/mtd/spi/built-in.o
 .debug_abbrev  0x00017f4a      0x46e drivers/net/built-in.o
 .debug_abbrev  0x000183b8      0xe56 drivers/net/phy/built-in.o
 .debug_abbrev  0x0001920e      0x8aa drivers/serial/built-in.o
 .debug_abbrev  0x00019ab8      0x7a6 drivers/spi/built-in.o
 .debug_abbrev  0x0001a25e     0x1d55 drivers/usb/gadget/built-in.o
 .debug_abbrev  0x0001bfb3      0xce1 drivers/usb/host/built-in.o
 .debug_abbrev  0x0001cc94      0x45f drivers/usb/ulpi/built-in.o
 .debug_abbrev  0x0001d0f3     0x20e3 fs/built-in.o
 .debug_abbrev  0x0001f1d6     0x807b lib/built-in.o
 .debug_abbrev  0x00027251     0x2150 net/built-in.o
 .debug_abbrev  0x000293a1      0x1bb test/dm/built-in.o
 .debug_abbrev  0x0002955c       0x14 arch/arm/lib/lib.a(ashldi3.o)
 .debug_abbrev  0x00029570       0x12 arch/arm/lib/lib.a(lib1funcs.o)
 .debug_abbrev  0x00029582       0x14 arch/arm/lib/lib.a(lshrdi3.o)
 .debug_abbrev  0x00029596       0x4d arch/arm/lib/lib.a(div0.o)

.debug_aranges  0x00000000     0x5a60
 .debug_aranges
                0x00000000       0x20 arch/arm/cpu/armv7/start.o
 .debug_aranges
                0x00000020      0x120 arch/arm/cpu/armv7/built-in.o
 .debug_aranges
                0x00000140      0x308 arch/arm/lib/built-in.o
 .debug_aranges
                0x00000448      0x188 arch/arm/mach-zynq/built-in.o
 .debug_aranges
                0x000005d0       0x48 board/xilinx/zynq/built-in.o
 .debug_aranges
                0x00000618      0x968 cmd/built-in.o
 .debug_aranges
                0x00000f80     0x1228 common/built-in.o
 .debug_aranges
                0x000021a8       0xb8 disk/built-in.o
 .debug_aranges
                0x00002260      0x808 drivers/built-in.o
 .debug_aranges
                0x00002a68      0x1c0 drivers/gpio/built-in.o
 .debug_aranges
                0x00002c28       0xe0 drivers/i2c/built-in.o
 .debug_aranges
                0x00002d08      0x268 drivers/mmc/built-in.o
 .debug_aranges
                0x00002f70      0x130 drivers/mtd/built-in.o
 .debug_aranges
                0x000030a0      0x180 drivers/mtd/spi/built-in.o
 .debug_aranges
                0x00003220       0x88 drivers/net/built-in.o
 .debug_aranges
                0x000032a8      0x1d8 drivers/net/phy/built-in.o
 .debug_aranges
                0x00003480      0x160 drivers/serial/built-in.o
 .debug_aranges
                0x000035e0      0x118 drivers/spi/built-in.o
 .debug_aranges
                0x000036f8      0x3a8 drivers/usb/gadget/built-in.o
 .debug_aranges
                0x00003aa0      0x1c0 drivers/usb/host/built-in.o
 .debug_aranges
                0x00003c60       0xa0 drivers/usb/ulpi/built-in.o
 .debug_aranges
                0x00003d00      0x4c8 fs/built-in.o
 .debug_aranges
                0x000041c8     0x1370 lib/built-in.o
 .debug_aranges
                0x00005538      0x448 net/built-in.o
 .debug_aranges
                0x00005980       0x38 test/dm/built-in.o
 .debug_aranges
                0x000059b8       0x20 arch/arm/lib/lib.a(ashldi3.o)
 .debug_aranges
                0x000059d8       0x48 arch/arm/lib/lib.a(lib1funcs.o)
 .debug_aranges
                0x00005a20       0x20 arch/arm/lib/lib.a(lshrdi3.o)
 .debug_aranges
                0x00005a40       0x20 arch/arm/lib/lib.a(div0.o)

.debug_frame    0x00000000     0xfc5c
 .debug_frame   0x00000000      0x1e0 arch/arm/cpu/armv7/built-in.o
 .debug_frame   0x000001e0      0x464 arch/arm/lib/built-in.o
 .debug_frame   0x00000644      0x308 arch/arm/mach-zynq/built-in.o
 .debug_frame   0x0000094c       0x90 board/xilinx/zynq/built-in.o
 .debug_frame   0x000009dc     0x187c cmd/built-in.o
 .debug_frame   0x00002258     0x3468 common/built-in.o
 .debug_frame   0x000056c0      0x26c disk/built-in.o
 .debug_frame   0x0000592c     0x162c drivers/built-in.o
 .debug_frame   0x00006f58      0x5e4 drivers/gpio/built-in.o
 .debug_frame   0x0000753c      0x238 drivers/i2c/built-in.o
 .debug_frame   0x00007774      0x714 drivers/mmc/built-in.o
 .debug_frame   0x00007e88      0x430 drivers/mtd/built-in.o
 .debug_frame   0x000082b8      0x43c drivers/mtd/spi/built-in.o
 .debug_frame   0x000086f4      0x188 drivers/net/built-in.o
 .debug_frame   0x0000887c      0x5c0 drivers/net/phy/built-in.o
 .debug_frame   0x00008e3c      0x340 drivers/serial/built-in.o
 .debug_frame   0x0000917c      0x360 drivers/spi/built-in.o
 .debug_frame   0x000094dc      0xaa4 drivers/usb/gadget/built-in.o
 .debug_frame   0x00009f80      0x534 drivers/usb/host/built-in.o
 .debug_frame   0x0000a4b4      0x1c4 drivers/usb/ulpi/built-in.o
 .debug_frame   0x0000a678     0x1020 fs/built-in.o
 .debug_frame   0x0000b698     0x37c0 lib/built-in.o
 .debug_frame   0x0000ee58      0xd68 net/built-in.o
 .debug_frame   0x0000fbc0       0x7c test/dm/built-in.o
 .debug_frame   0x0000fc3c       0x20 arch/arm/lib/lib.a(div0.o)

.debug_str      0x00000000    0x1a6bc
 .debug_str     0x00000000      0x589 arch/arm/cpu/armv7/built-in.o
                                0xd5e (size before relaxing)
 .debug_str     0x00000589     0x1656 arch/arm/lib/built-in.o
                               0x3b56 (size before relaxing)
 .debug_str     0x00001bdf      0xa1a arch/arm/mach-zynq/built-in.o
                               0x27bc (size before relaxing)
 .debug_str     0x000025f9      0x333 board/xilinx/zynq/built-in.o
                                0x927 (size before relaxing)
 .debug_str     0x0000292c     0x4d90 cmd/built-in.o
                              0x15889 (size before relaxing)
 .debug_str     0x000076bc     0x48d3 common/built-in.o
                              0x1f21f (size before relaxing)
 .debug_str     0x0000bf8f      0x358 disk/built-in.o
                                0xf75 (size before relaxing)
 .debug_str     0x0000c2e7     0x17b4 drivers/built-in.o
                               0xd8a4 (size before relaxing)
 .debug_str     0x0000da9b      0x549 drivers/gpio/built-in.o
                               0x2134 (size before relaxing)
 .debug_str     0x0000dfe4      0x1b5 drivers/i2c/built-in.o
                                0xb38 (size before relaxing)
 .debug_str     0x0000e199      0x8c0 drivers/mmc/built-in.o
                               0x4a14 (size before relaxing)
 .debug_str     0x0000ea59      0x464 drivers/mtd/built-in.o
                                0xc03 (size before relaxing)
 .debug_str     0x0000eebd      0x637 drivers/mtd/spi/built-in.o
                               0x3230 (size before relaxing)
 .debug_str     0x0000f4f4      0x378 drivers/net/built-in.o
                               0x144d (size before relaxing)
 .debug_str     0x0000f86c      0x548 drivers/net/phy/built-in.o
                               0x2e35 (size before relaxing)
 .debug_str     0x0000fdb4      0x3bf drivers/serial/built-in.o
                               0x26b6 (size before relaxing)
 .debug_str     0x00010173      0x4aa drivers/spi/built-in.o
                               0x2023 (size before relaxing)
 .debug_str     0x0001061d     0x1a76 drivers/usb/gadget/built-in.o
                               0x6f91 (size before relaxing)
 .debug_str     0x00012093      0xa6a drivers/usb/host/built-in.o
                               0x4352 (size before relaxing)
 .debug_str     0x00012afd      0x145 drivers/usb/ulpi/built-in.o
                                0x973 (size before relaxing)
 .debug_str     0x00012c42     0x2113 fs/built-in.o
                               0x6ca8 (size before relaxing)
 .debug_str     0x00014d55     0x43cf lib/built-in.o
                              0x164f1 (size before relaxing)
 .debug_str     0x00019124     0x1504 net/built-in.o
                               0x7b0f (size before relaxing)
 .debug_str     0x0001a628       0x79 test/dm/built-in.o
                                0x3a5 (size before relaxing)
 .debug_str     0x0001a6a1       0x1b arch/arm/lib/lib.a(div0.o)
                                0x189 (size before relaxing)

.debug_loc      0x00000000    0x9db96
 .debug_loc     0x00000000      0x40e arch/arm/cpu/armv7/built-in.o
 .debug_loc     0x0000040e      0x9fc arch/arm/lib/built-in.o
 .debug_loc     0x00000e0a      0xcf3 arch/arm/mach-zynq/built-in.o
 .debug_loc     0x00001afd       0x41 board/xilinx/zynq/built-in.o
 .debug_loc     0x00001b3e     0xef5f cmd/built-in.o
 .debug_loc     0x00010a9d    0x169e1 common/built-in.o
 .debug_loc     0x0002747e     0x1320 disk/built-in.o
 .debug_loc     0x0002879e     0x91de drivers/built-in.o
 .debug_loc     0x0003197c     0x201e drivers/gpio/built-in.o
 .debug_loc     0x0003399a      0x8f6 drivers/i2c/built-in.o
 .debug_loc     0x00034290     0x4404 drivers/mmc/built-in.o
 .debug_loc     0x00038694     0x1a02 drivers/mtd/built-in.o
 .debug_loc     0x0003a096     0x2a43 drivers/mtd/spi/built-in.o
 .debug_loc     0x0003cad9      0xd70 drivers/net/built-in.o
 .debug_loc     0x0003d849     0x38dc drivers/net/phy/built-in.o
 .debug_loc     0x00041125      0xf17 drivers/serial/built-in.o
 .debug_loc     0x0004203c     0x1734 drivers/spi/built-in.o
 .debug_loc     0x00043770     0x6bb2 drivers/usb/gadget/built-in.o
 .debug_loc     0x0004a322     0x2da7 drivers/usb/host/built-in.o
 .debug_loc     0x0004d0c9      0xb90 drivers/usb/ulpi/built-in.o
 .debug_loc     0x0004dc59    0x26db3 fs/built-in.o
 .debug_loc     0x00074a0c    0x23fbb lib/built-in.o
 .debug_loc     0x000989c7     0x4f45 net/built-in.o
 .debug_loc     0x0009d90c      0x28a test/dm/built-in.o

.debug_ranges   0x00000000     0xabb8
 .debug_ranges  0x00000000       0xd8 arch/arm/cpu/armv7/built-in.o
 .debug_ranges  0x000000d8      0x1d8 arch/arm/lib/built-in.o
 .debug_ranges  0x000002b0      0x640 arch/arm/mach-zynq/built-in.o
 .debug_ranges  0x000008f0       0x38 board/xilinx/zynq/built-in.o
 .debug_ranges  0x00000928     0x1068 cmd/built-in.o
 .debug_ranges  0x00001990     0x1d28 common/built-in.o
 .debug_ranges  0x000036b8      0x1f8 disk/built-in.o
 .debug_ranges  0x000038b0      0xdf0 drivers/built-in.o
 .debug_ranges  0x000046a0      0x280 drivers/gpio/built-in.o
 .debug_ranges  0x00004920      0x168 drivers/i2c/built-in.o
 .debug_ranges  0x00004a88      0x620 drivers/mmc/built-in.o
 .debug_ranges  0x000050a8      0x158 drivers/mtd/built-in.o
 .debug_ranges  0x00005200      0x310 drivers/mtd/spi/built-in.o
 .debug_ranges  0x00005510      0x190 drivers/net/built-in.o
 .debug_ranges  0x000056a0      0x710 drivers/net/phy/built-in.o
 .debug_ranges  0x00005db0      0x238 drivers/serial/built-in.o
 .debug_ranges  0x00005fe8      0x230 drivers/spi/built-in.o
 .debug_ranges  0x00006218      0xc80 drivers/usb/gadget/built-in.o
 .debug_ranges  0x00006e98      0x3d8 drivers/usb/host/built-in.o
 .debug_ranges  0x00007270       0xf8 drivers/usb/ulpi/built-in.o
 .debug_ranges  0x00007368      0xf18 fs/built-in.o
 .debug_ranges  0x00008280     0x1f10 lib/built-in.o
 .debug_ranges  0x0000a190      0x9b0 net/built-in.o
 .debug_ranges  0x0000ab40       0x28 test/dm/built-in.o
 .debug_ranges  0x0000ab68       0x40 arch/arm/lib/lib.a(lib1funcs.o)
 .debug_ranges  0x0000aba8       0x10 arch/arm/lib/lib.a(div0.o)
